(lp1
F0.457495710997814
aF0.60999428133041866
aF0.457495710997814
aF0.457495710997814
aF0.43643578047198478
aF0.6546536707079772
aF0.43643578047198478
aF0.43643578047198478
aF0.457495710997814
aF0.60999428133041866
aF0.457495710997814
aF0.457495710997814
aF0.457495710997814
aF0.457495710997814
aF0.60999428133041866
aF0.457495710997814
aF0.43643578047198478
aF0.6546536707079772
aF0.43643578047198478
aF0.43643578047198478
aF0.72932495748947279
aF0.29172998299578912
aF0.43759497449368367
aF0.43759497449368367
aF0.63245553203367588
aF0.31622776601683794
aF0.31622776601683794
aF0.63245553203367588
aF0.48336824452283178
aF0.29002094671369905
aF0.77338919123653083
aF0.29002094671369905
aF0.91766293548224698
aF0.22941573387056174
aF0.22941573387056174
aF0.22941573387056174
aF0.5
aF0.5
aF0.5
aF0.5
aF0
aF1
aF0
aF0
aF0.5
aF0.5
aF0.5
aF0.5
aF0.34188172937891381
aF0.45584230583855179
aF0.45584230583855179
aF0.68376345875782762
aF0.68973049471500525
aF0.59119756689857594
aF0.29559878344928797
aF0.29559878344928797
aF0.58834840541455213
aF0.39223227027636809
aF0.58834840541455213
aF0.39223227027636809
aF0.5
aF0.5
aF0.5
aF0.5
aF0.60999428133041866
aF0.457495710997814
aF0.457495710997814
aF0.457495710997814
aF0.5
aF0.5
aF0.5
aF0.5
aF0.36980013081681939
aF0.64715022892943397
aF0.36980013081681939
aF0.55470019622522904
aF0.43905703995876139
aF0.76834981992783236
aF0.32929277996907103
aF0.32929277996907103
aF0.457495710997814
aF0.457495710997814
aF0.457495710997814
aF0.60999428133041866
aF0.5388159060803247
aF0.5388159060803247
aF0.5388159060803247
aF0.35921060405354982
aF0.7559289460184544
aF0.3779644730092272
aF0.3779644730092272
aF0.3779644730092272
aF0.5
aF0.5
aF0.5
aF0.5
aF0.5
aF0.5
aF0.5
aF0.5
aF0.46816458878452227
aF0.46816458878452227
aF0.58520573598065284
aF0.46816458878452227
aF0.62217101683825515
aF0.51847584736521268
aF0.4147806778921701
aF0.4147806778921701
aF0.56568542494923801
aF0.56568542494923801
aF0.42426406871192851
aF0.42426406871192851
aF0.43643578047198478
aF0.6546536707079772
aF0.43643578047198478
aF0.43643578047198478
aF0.457495710997814
aF0.457495710997814
aF0.60999428133041866
aF0.457495710997814
aF0.31622776601683794
aF0.63245553203367588
aF0.31622776601683794
aF0.63245553203367588
aF0.5
aF0.5
aF0.5
aF0.5
aF0.52981294282601754
aF0.52981294282601754
aF0.52981294282601754
aF0.39735970711951313
aF0.3779644730092272
aF0.3779644730092272
aF0.3779644730092272
aF0.7559289460184544
aF0.52981294282601754
aF0.52981294282601754
aF0.52981294282601754
aF0.39735970711951313
aF0.56568542494923801
aF0.56568542494923801
aF0.42426406871192851
aF0.42426406871192851
aF0.43643578047198478
aF0.43643578047198478
aF0.43643578047198478
aF0.6546536707079772
aF0.5
aF0.5
aF0.5
aF0.5
aF0.43643578047198478
aF0.43643578047198478
aF0.43643578047198478
aF0.6546536707079772
aF0.47140452079103173
aF0.47140452079103173
aF0.70710678118654757
aF0.23570226039551587
aF0.59628479399994394
aF0.44721359549995793
aF0.59628479399994394
aF0.29814239699997197
aF0.34641016151377541
aF0.46188021535170054
aF0.57735026918962573
aF0.57735026918962573
aF0.27735009811261457
aF0.55470019622522915
aF0.55470019622522915
aF0.55470019622522915
aF0.54433105395181736
aF0.6804138174397717
aF0.27216552697590868
aF0.40824829046386302
aF0.7559289460184544
aF0.3779644730092272
aF0.3779644730092272
aF0.3779644730092272
aF0.31622776601683794
aF0.31622776601683794
aF0.63245553203367588
aF0.63245553203367588
aF0.39223227027636809
aF0.58834840541455213
aF0.39223227027636809
aF0.58834840541455213
aF0.58834840541455213
aF0.58834840541455213
aF0.39223227027636809
aF0.39223227027636809
aF0.49746833816309105
aF0.42640143271122088
aF0.49746833816309105
aF0.56853524361496122
aF0.5
aF0.5
aF0.5
aF0.5
aF0.43643578047198478
aF0.43643578047198478
aF0.43643578047198478
aF0.6546536707079772
aF0.43643578047198478
aF0.6546536707079772
aF0.43643578047198478
aF0.43643578047198478
aF0.5
aF0.5
aF0.5
aF0.5
aF0.5
aF0.5
aF0.5
aF0.5
aF0.30860669992418382
aF0.46291004988627571
aF0.77151674981045948
aF0.30860669992418382
aF0.46816458878452227
aF0.46816458878452227
aF0.58520573598065284
aF0.46816458878452227
aF0.6546536707079772
aF0.43643578047198478
aF0.43643578047198478
aF0.43643578047198478
aF0.5
aF0.5
aF0.5
aF0.5
aF0.6546536707079772
aF0.43643578047198478
aF0.43643578047198478
aF0.43643578047198478
aF0.5
aF0.5
aF0.5
aF0.5
aF0.60999428133041866
aF0.457495710997814
aF0.457495710997814
aF0.457495710997814
aF0.39223227027636809
aF0.58834840541455213
aF0.39223227027636809
aF0.58834840541455213
aF0.457495710997814
aF0.60999428133041866
aF0.457495710997814
aF0.457495710997814
aF0.46816458878452227
aF0.58520573598065284
aF0.46816458878452227
aF0.46816458878452227
aF0.5
aF0.5
aF0.5
aF0.5
aF0.43643578047198478
aF0.43643578047198478
aF0.6546536707079772
aF0.43643578047198478
aF0.44172610429938614
aF0.44172610429938614
aF0.55215763037423271
aF0.55215763037423271
aF0.457495710997814
aF0.457495710997814
aF0.457495710997814
aF0.60999428133041866
aF0.5
aF0.5
aF0.5
aF0.5
aF0.85280286542244166
aF0.42640143271122083
aF0.21320071635561041
aF0.21320071635561041
aF0.5
aF0.5
aF0.5
aF0.5
aF0.44172610429938614
aF0.55215763037423271
aF0.44172610429938614
aF0.55215763037423271
aF0.46816458878452227
aF0.46816458878452227
aF0.46816458878452227
aF0.58520573598065284
aF0.5
aF0.5
aF0.5
aF0.5
aF0.5
aF0.5
aF0.5
aF0.5
aF0.64018439966447993
aF0.25607375986579195
aF0.5121475197315839
aF0.5121475197315839
aF0.5
aF0.5
aF0.5
aF0.5
aF0.5
aF0.5
aF0.5
aF0.5
aF0.5
aF0.5
aF0.5
aF0.5
aF0.43643578047198478
aF0.43643578047198478
aF0.6546536707079772
aF0.43643578047198478
aF0.61545745489666359
aF0.4923659639173309
aF0.4923659639173309
aF0.3692744729379982
aF0.67505274055561437
aF0.33752637027780719
aF0.56254395046301198
aF0.33752637027780719
aF0.457495710997814
aF0.60999428133041866
aF0.457495710997814
aF0.457495710997814
aF0.39223227027636809
aF0.58834840541455213
aF0.39223227027636809
aF0.58834840541455213
aF0.5
aF0.5
aF0.5
aF0.5
aF0.3779644730092272
aF0.3779644730092272
aF0.7559289460184544
aF0.3779644730092272
aF0.55866081912733556
aF0.47885213068057331
aF0.47885213068057331
aF0.47885213068057331
aF0.59408852578600457
aF0.4950737714883372
aF0.4950737714883372
aF0.39605901719066977
aF0.41602514716892186
aF0.41602514716892186
aF0.69337524528153649
aF0.41602514716892186
aF0.49656353316142077
aF0.49656353316142077
aF0.41380294430118397
aF0.57932412202165751
aF0.7559289460184544
aF0.3779644730092272
aF0.3779644730092272
aF0.3779644730092272
aF0.5
aF0.5
aF0.5
aF0.5
aF0.53687549219315922
aF0.53687549219315922
aF0.46017899330842221
aF0.46017899330842221
aF0.59408852578600457
aF0.4950737714883372
aF0.4950737714883372
aF0.39605901719066977
aF0.52981294282601754
aF0.52981294282601754
aF0.52981294282601754
aF0.39735970711951313
aF0.61545745489666359
aF0.3692744729379982
aF0.4923659639173309
aF0.4923659639173309
aF0.3779644730092272
aF0.3779644730092272
aF0.3779644730092272
aF0.7559289460184544
aF0.43759497449368367
aF0.72932495748947279
aF0.43759497449368367
aF0.29172998299578912
aF0.457495710997814
aF0.457495710997814
aF0.457495710997814
aF0.60999428133041866
aF0.6311687442672026
aF0.36066785386697292
aF0.6311687442672026
aF0.27050089040022968
aF0.5
aF0.5
aF0.5
aF0.5
aF0.457495710997814
aF0.60999428133041866
aF0.457495710997814
aF0.457495710997814
aF0.55215763037423271
aF0.44172610429938614
aF0.55215763037423271
aF0.44172610429938614
aF0.47457899787624952
aF0.47457899787624952
aF0.56949479745149945
aF0.47457899787624952
aF0.7559289460184544
aF0.3779644730092272
aF0.3779644730092272
aF0.3779644730092272
aF0.82416338369213415
aF0.27472112789737807
aF0.41208169184606708
aF0.27472112789737807
aF0.59408852578600457
aF0.4950737714883372
aF0.39605901719066977
aF0.4950737714883372
aF0.457495710997814
aF0.457495710997814
aF0.457495710997814
aF0.60999428133041866
aF0.457495710997814
aF0.457495710997814
aF0.60999428133041866
aF0.457495710997814
aF0.5
aF0.5
aF0.5
aF0.5
aF0.5
aF0.5
aF0.5
aF0.5
aF0.54321447625511121
aF0.45267873021259264
aF0.45267873021259264
aF0.54321447625511121
aF0.5
aF0.5
aF0.5
aF0.5
aF0.43643578047198478
aF0.43643578047198478
aF0.6546536707079772
aF0.43643578047198478
aF0.5
aF0.5
aF0.5
aF0.5
aF0.5
aF0.5
aF0.5
aF0.5
aF0.457495710997814
aF0.457495710997814
aF0.457495710997814
aF0.60999428133041866
aF0.5
aF0.5
aF0.5
aF0.5
aF0.46816458878452227
aF0.58520573598065284
aF0.46816458878452227
aF0.46816458878452227
aF0.3779644730092272
aF0.7559289460184544
aF0.3779644730092272
aF0.3779644730092272
aF0.43412157106222965
aF0.55815630565143803
aF0.43412157106222965
aF0.55815630565143803
aF0.6546536707079772
aF0.43643578047198478
aF0.43643578047198478
aF0.43643578047198478
aF0.25916052767440806
aF0.51832105534881612
aF0.69109474046508812
aF0.43193421279068006
aF0.5
aF0.5
aF0.5
aF0.5
aF0.46816458878452227
aF0.58520573598065284
aF0.46816458878452227
aF0.46816458878452227
aF0.46816458878452227
aF0.46816458878452227
aF0.46816458878452227
aF0.58520573598065284
aF0.47457899787624952
aF0.47457899787624952
aF0.47457899787624952
aF0.56949479745149945
aF0.5
aF0.5
aF0.5
aF0.5
aF0.43643578047198478
aF0.43643578047198478
aF0.6546536707079772
aF0.43643578047198478
aF0.5
aF0.5
aF0.5
aF0.5
aF0.52981294282601754
aF0.52981294282601754
aF0.52981294282601754
aF0.39735970711951313
aF0
aF0.44721359549995793
aF0.89442719099991586
aF0
aF0.3779644730092272
aF0.3779644730092272
aF0.3779644730092272
aF0.7559289460184544
aF0.50709255283710997
aF0.67612340378281321
aF0.1690308509457033
aF0.50709255283710997
aF0.5
aF0.5
aF0.5
aF0.5
aF0.43643578047198478
aF0.43643578047198478
aF0.6546536707079772
aF0.43643578047198478
aF0.48595432244043496
aF0.48595432244043496
aF0.48595432244043496
aF0.53994924715603887
aF0.5
aF0.5
aF0.5
aF0.5
aF0.5
aF0.5
aF0.5
aF0.5
aF0.5
aF0.5
aF0.5
aF0.5
aF0.58834840541455213
aF0.39223227027636809
aF0.58834840541455213
aF0.39223227027636809
aF0.3779644730092272
aF0.7559289460184544
aF0.3779644730092272
aF0.3779644730092272
aF0.5
aF0.5
aF0.5
aF0.5
aF0.34641016151377541
aF0.57735026918962573
aF0.57735026918962573
aF0.46188021535170054
aF0.3779644730092272
aF0.3779644730092272
aF0.7559289460184544
aF0.3779644730092272
aF0.48666426339228763
aF0.32444284226152509
aF0.64888568452305018
aF0.48666426339228763
aF0.41602514716892186
aF0.69337524528153649
aF0.41602514716892186
aF0.41602514716892186
aF0.457495710997814
aF0.60999428133041866
aF0.457495710997814
aF0.457495710997814
aF0.32444284226152509
aF0.48666426339228763
aF0.64888568452305018
aF0.48666426339228763
aF0.52075564392329554
aF0.39056673294247163
aF0.6509445549041194
aF0.39056673294247163
aF0.41602514716892186
aF0.41602514716892186
aF0.69337524528153649
aF0.41602514716892186
aF0.42426406871192851
aF0.56568542494923801
aF0.42426406871192851
aF0.56568542494923801
aF0.5
aF0.5
aF0.5
aF0.5
aF0.3779644730092272
aF0.3779644730092272
aF0.7559289460184544
aF0.3779644730092272
aF0.46816458878452227
aF0.46816458878452227
aF0.58520573598065284
aF0.46816458878452227
aF0.5
aF0.5
aF0.5
aF0.5
aF0.5
aF0.5
aF0.5
aF0.5
aF0.36380343755449945
aF0.60633906259083248
aF0.36380343755449945
aF0.60633906259083248
aF0.5
aF0.5
aF0.5
aF0.5
aF0.58520573598065284
aF0.46816458878452227
aF0.46816458878452227
aF0.46816458878452227
aF0.5
aF0.5
aF0.5
aF0.5
aF0.3779644730092272
aF0.7559289460184544
aF0.3779644730092272
aF0.3779644730092272
aF0.46816458878452227
aF0.46816458878452227
aF0.58520573598065284
aF0.46816458878452227
aF0.5
aF0.5
aF0.5
aF0.5
aF0.5
aF0.5
aF0.5
aF0.5
aF0.43643578047198478
aF0.43643578047198478
aF0.6546536707079772
aF0.43643578047198478
aF0.5
aF0.5
aF0.5
aF0.5
aF0.43643578047198478
aF0.43643578047198478
aF0.6546536707079772
aF0.43643578047198478
aF0.3779644730092272
aF0.3779644730092272
aF0.7559289460184544
aF0.3779644730092272
aF0.48418202613504197
aF0.54470477940192219
aF0.48418202613504197
aF0.48418202613504197
aF0.48112522432468813
aF0.28867513459481287
aF0.48112522432468813
aF0.67357531405456339
aF0.46291004988627571
aF0.30860669992418382
aF0.77151674981045948
aF0.30860669992418382
aF0.39605901719066977
aF0.59408852578600457
aF0.4950737714883372
aF0.4950737714883372
aF0.58520573598065284
aF0.46816458878452227
aF0.46816458878452227
aF0.46816458878452227
aF0.46816458878452227
aF0.46816458878452227
aF0.46816458878452227
aF0.58520573598065284
aF0.5163977794943222
aF0.2581988897471611
aF0.2581988897471611
aF0.7745966692414834
aF0.58834840541455213
aF0.58834840541455213
aF0.39223227027636809
aF0.39223227027636809
aF0.64888568452305018
aF0.32444284226152509
aF0.48666426339228763
aF0.48666426339228763
aF0.5388159060803247
aF0.5388159060803247
aF0.35921060405354982
aF0.5388159060803247
aF0.5
aF0.5
aF0.5
aF0.5
aF0.4950737714883372
aF0.4950737714883372
aF0.39605901719066977
aF0.59408852578600457
aF0.457495710997814
aF0.60999428133041866
aF0.457495710997814
aF0.457495710997814
aF0.6546536707079772
aF0.43643578047198478
aF0.43643578047198478
aF0.43643578047198478
aF0.5
aF0.5
aF0.5
aF0.5
aF0.43905703995876139
aF0.32929277996907103
aF0.32929277996907103
aF0.76834981992783236
aF0.7559289460184544
aF0.3779644730092272
aF0.3779644730092272
aF0.3779644730092272
aF0.5
aF0.5
aF0.5
aF0.5
aF0.5
aF0.5
aF0.5
aF0.5
aF0.46816458878452227
aF0.46816458878452227
aF0.46816458878452227
aF0.58520573598065284
aF0.47885213068057331
aF0.47885213068057331
aF0.55866081912733556
aF0.47885213068057331
aF0.38851434494290565
aF0.67990010365008491
aF0.38851434494290565
aF0.48564293117863205
aF0.5
aF0.5
aF0.5
aF0.5
aF0.5
aF0.5
aF0.5
aF0.5
aF0.457495710997814
aF0.60999428133041866
aF0.457495710997814
aF0.457495710997814
aF0.6546536707079772
aF0.43643578047198478
aF0.43643578047198478
aF0.43643578047198478
aF0.41602514716892186
aF0.41602514716892186
aF0.69337524528153649
aF0.41602514716892186
aF0.3481553119113957
aF0.5222329678670935
aF0.3481553119113957
aF0.69631062382279141
aF0.3779644730092272
aF0.3779644730092272
aF0.7559289460184544
aF0.3779644730092272
aF0.43759497449368367
aF0.29172998299578912
aF0.43759497449368367
aF0.72932495748947279
aF0.6546536707079772
aF0.43643578047198478
aF0.43643578047198478
aF0.43643578047198478
aF0.4147806778921701
aF0.4147806778921701
aF0.51847584736521268
aF0.62217101683825515
aF0.17960530202677491
aF0.89802651013387458
aF0.35921060405354982
aF0.17960530202677491
aF0.457495710997814
aF0.60999428133041866
aF0.457495710997814
aF0.457495710997814
aF0.35856858280031806
aF0.47809144373375745
aF0.35856858280031806
aF0.71713716560063612
aF0.5
aF0.5
aF0.5
aF0.5
aF0.5
aF0.5
aF0.5
aF0.5
aF0.5
aF0.5
aF0.5
aF0.5
aF0.55866081912733556
aF0.47885213068057331
aF0.47885213068057331
aF0.47885213068057331
aF0.5
aF0.5
aF0.5
aF0.5
aF0.5
aF0.5
aF0.5
aF0.5
aF0.19245008972987526
aF0.19245008972987526
aF0.57735026918962573
aF0.76980035891950105
aF0.5
aF0.5
aF0.5
aF0.5
aF0.5
aF0.5
aF0.5
aF0.5
aF0.3779644730092272
aF0.7559289460184544
aF0.3779644730092272
aF0.3779644730092272
aF0.55068879175393481
aF0.30037570459305535
aF0.55068879175393481
aF0.55068879175393481
aF0.48666426339228763
aF0.48666426339228763
aF0.64888568452305018
aF0.32444284226152509
aF0.5
aF0.5
aF0.5
aF0.5
aF0.41602514716892186
aF0.41602514716892186
aF0.69337524528153649
aF0.41602514716892186
aF0.43643578047198478
aF0.43643578047198478
aF0.43643578047198478
aF0.6546536707079772
aF0.5
aF0.5
aF0.5
aF0.5
aF0.5
aF0.5
aF0.5
aF0.5
aF0.22941573387056174
aF0.22941573387056174
aF0.91766293548224698
aF0.22941573387056174
aF0.31448545101657549
aF0.31448545101657549
aF0.31448545101657549
aF0.83862786937753464
aF0.43643578047198478
aF0.43643578047198478
aF0.6546536707079772
aF0.43643578047198478
aF0.43643578047198478
aF0.43643578047198478
aF0.43643578047198478
aF0.6546536707079772
aF0.55470019622522915
aF0.27735009811261457
aF0.55470019622522915
aF0.55470019622522915
aF0.3779644730092272
aF0.3779644730092272
aF0.7559289460184544
aF0.3779644730092272
aF0.24806946917841693
aF0.37210420376762537
aF0.49613893835683387
aF0.74420840753525075
aF0.47733437050543803
aF0.39777864208786501
aF0.31822291367029198
aF0.71600155575815705
aF0.34050261230349943
aF0.68100522460699886
aF0.2553769592276246
aF0.59587957153112403
aF0.5
aF0.5
aF0.5
aF0.5
aF0.9561828874675149
aF0.23904572186687872
aF0.11952286093343936
aF0.11952286093343936
aF0.5
aF0.5
aF0.5
aF0.5
aF0.7559289460184544
aF0.3779644730092272
aF0.3779644730092272
aF0.3779644730092272
aF0.457495710997814
aF0.60999428133041866
aF0.457495710997814
aF0.457495710997814
aF0.5
aF0.5
aF0.5
aF0.5
aF0.5222329678670935
aF0.69631062382279141
aF0.3481553119113957
aF0.3481553119113957
aF0.52981294282601754
aF0.39735970711951313
aF0.52981294282601754
aF0.52981294282601754
aF0.6546536707079772
aF0.43643578047198478
aF0.43643578047198478
aF0.43643578047198478
aF0.6509445549041194
aF0.39056673294247163
aF0.39056673294247163
aF0.52075564392329554
aF0.42426406871192851
aF0.42426406871192851
aF0.56568542494923801
aF0.56568542494923801
aF0.43643578047198478
aF0.43643578047198478
aF0.6546536707079772
aF0.43643578047198478
aF0.51745488966820097
aF0.51745488966820097
aF0.44353276257274371
aF0.51745488966820097
aF0.46816458878452227
aF0.46816458878452227
aF0.58520573598065284
aF0.46816458878452227
aF0.55215763037423271
aF0.44172610429938614
aF0.55215763037423271
aF0.44172610429938614
aF0.5
aF0.5
aF0.5
aF0.5
aF0.457495710997814
aF0.457495710997814
aF0.60999428133041866
aF0.457495710997814
aF0.39223227027636809
aF0.58834840541455213
aF0.39223227027636809
aF0.58834840541455213
aF0.31622776601683794
aF0.63245553203367588
aF0.31622776601683794
aF0.63245553203367588
aF0.5
aF0.5
aF0.5
aF0.5
aF0.58123819371909646
aF0.23249527748763857
aF0.34874291623145787
aF0.69748583246291573
aF0.40032038451271784
aF0.40032038451271784
aF0.7205766921228921
aF0.40032038451271784
aF0.5
aF0.5
aF0.5
aF0.5
aF0.47885213068057331
aF0.47885213068057331
aF0.47885213068057331
aF0.55866081912733556
aF0.5
aF0.5
aF0.5
aF0.5
aF0.457495710997814
aF0.60999428133041866
aF0.457495710997814
aF0.457495710997814
aF0.21320071635561041
aF0.21320071635561041
aF0.42640143271122083
aF0.85280286542244166
aF0.5222329678670935
aF0.69631062382279141
aF0.3481553119113957
aF0.3481553119113957
aF0.5
aF0.5
aF0.5
aF0.5
aF0.5163977794943222
aF0.7745966692414834
aF0.2581988897471611
aF0.2581988897471611
aF0.64888568452305018
aF0.32444284226152509
aF0.48666426339228763
aF0.48666426339228763
aF0.5
aF0.5
aF0.5
aF0.5
aF0.5
aF0.5
aF0.5
aF0.5
aF0.48666426339228763
aF0.48666426339228763
aF0.64888568452305018
aF0.32444284226152509
aF0.5
aF0.5
aF0.5
aF0.5
aF0.42426406871192851
aF0.56568542494923801
aF0.42426406871192851
aF0.56568542494923801
aF0.45267873021259264
aF0.45267873021259264
aF0.54321447625511121
aF0.54321447625511121
aF0.60999428133041866
aF0.457495710997814
aF0.457495710997814
aF0.457495710997814
aF0.5
aF0.5
aF0.5
aF0.5
aF0.55470019622522915
aF0.55470019622522915
aF0.55470019622522915
aF0.27735009811261457
aF0.47140452079103173
aF0.23570226039551587
aF0.70710678118654757
aF0.47140452079103173
aF0.5
aF0.5
aF0.5
aF0.5
aF0.41602514716892186
aF0.41602514716892186
aF0.41602514716892186
aF0.69337524528153649
aF0.52026598171447191
aF0.52026598171447191
aF0.43355498476205995
aF0.52026598171447191
aF0.3779644730092272
aF0.7559289460184544
aF0.3779644730092272
aF0.3779644730092272
aF0.5
aF0.5
aF0.5
aF0.5
aF0.5
aF0.5
aF0.5
aF0.5
aF0.60999428133041866
aF0.457495710997814
aF0.457495710997814
aF0.457495710997814
aF0.63245553203367588
aF0.31622776601683794
aF0.31622776601683794
aF0.63245553203367588
aF0.28867513459481292
aF0.28867513459481292
aF0.28867513459481292
aF0.86602540378443871
a.