(lp1
F0.82882071190479623
aF0.25439828828582006
aF0.35323393780190893
aF0.35151603607777093
aF-0.0012406376403560563
aF-0.0015044513914662524
aF0.99999671873526952
aF-0.0016613136218560985
aF0.42957570739085454
aF0.63005635546915451
aF0.38523962347345803
aF0.51969619303839587
aF0.43353924233259694
aF0.66040228351591368
aF0.43353924233259694
aF0.43353924233259694
aF0.53920184988774023
aF0.46585926994526777
aF0.55483614260685299
aF0.42941048024104944
aF0.13708902951845114
aF0.20207824203445895
aF0.43467365623768739
aF0.86685050305973321
aF0.34955226807860224
aF0.35363204594979086
aF0.34958025735991144
aF0.79407256067858689
aF0.72710050218776989
aF0.31288620503298764
aF0.31306196108830908
aF0.52480405003952679
aF0.33807675518366737
aF0.61277362104797062
aF0.63434808865755332
aF0.32835209664131831
aF0.49873049138206249
aF0.56853265077812454
aF0.52993731564125612
aF0.38367299026116658
aF0.44312568368710781
aF0.48105099520942496
aF0.34641743333149982
aF0.6724764162027328
aF0.37121966932014627
aF0.47498476869776718
aF0.43394430907155446
aF0.6695354831817214
aF0.58959214908983315
aF0.36337275515533546
aF0.45733498040413545
aF0.55784052760730951
aF0.5230157702337791
aF0.49304130368444332
aF0.53689754999039241
aF0.44170781944881343
aF0.53818419242598603
aF0.60025314718034528
aF0.52220960743607781
aF0.27812058576153187
aF0.37121320919000333
aF0.31612999572266293
aF0.79079564688751314
aF0.37000651884934049
aF0.50369144559049128
aF0.75991157673859411
aF0.29054201346588859
aF0.29054201346588859
aF0.47893240290755579
aF0.77543857511430858
aF0.29096285817083711
aF0.29096285817083711
aF0.62266453180132242
aF0.73543875303039052
aF0.18896920566291237
aF0.18896920566291237
aF0.17744308196162709
aF0.12269148888015065
aF0.95966579736925228
aF0.18028396650830744
aF0.71989378106464397
aF0.47045675635320222
aF0.36060053777255635
aF0.36109643662630769
aF0.36107497081475204
aF0.45450072269105785
aF0.67563529481350981
aF0.45450072269105785
aF0.43093088825266385
aF0.4309308882526639
aF0.42096779469718587
aF0.67185061950356817
aF0.41486697102431314
aF0.69545394459973764
aF0.41486697102431314
aF0.41486697102431314
aF0.51087687046651342
aF0.51557320717640809
aF0.46064510687351828
aF0.51087687046651342
aF0.35006864120602565
aF0.78413836006284554
aF0.35006864120602565
aF0.37420706188724573
aF-0.001197735064880858
aF0.99999578530147093
aF-0.0019434946335802599
aF-0.0017937777504701527
aF0.48387012582018474
aF0.29199453881111515
aF0.66668709758799127
aF0.48593950709213068
aF0.55273295921367105
aF0.54941134403533021
aF0.3937600166604992
aF0.48742845641561977
aF0.47058669856758434
aF0.46315155422791554
aF0.46790794562260163
aF0.58745293545165311
aF0.43348108205318142
aF0.49058932767983304
aF0.58863406154196407
aF0.47426385552903344
aF0.53186236792810049
aF0.47740318979031104
aF0.49129587555854309
aF0.49783227960741416
aF0.4198902314395514
aF0.52805538038006461
aF0.60728406342904551
aF0.41959000833958399
aF0.42602700272659993
aF0.42414330798448341
aF0.67727830434153802
aF0.42414330798448341
aF0.50668456639406279
aF0.66721651044060604
aF0.35850526905695007
aF0.41178495653912017
aF0.476501617924531
aF0.47725017312184342
aF0.56339218367460975
aF0.47725017312184342
aF0.5083960413359937
aF0.33899565783436775
aF0.4942191999205906
aF0.61835490743842725
aF0.57487406345643222
aF0.61498733698978314
aF0.41251881735821194
aF0.348049726091958
aF0.49108174642021324
aF0.6280310475587102
aF0.33441751380489049
aF0.50257402250388783
aF0.38114468984675781
aF0.3796191827449803
aF0.60060031690205617
aF0.59152114149098833
aF0.41929372045409746
aF0.41973043337823962
aF0.69406997083745936
aF0.40778182262769469
aF0.84872676669127467
aF0.21964984580675723
aF0.32675111713288935
aF0.35305881690059954
aF0.28858575091817606
aF0.28865818875356158
aF0.86608569248542389
aF0.2886005677481413
aF0.42191989309521355
aF0.63465469451273138
aF0.44183166664917251
aF0.47326715593783764
aF0.55230405257788173
aF0.55135217003785508
aF0.41856674520433629
aF0.46451361434262062
aF0.577113097578421
aF0.41276757865473696
aF0.40435611930374626
aF0.577113097578421
aF0.20066539544002771
aF0.47862614123914249
aF0.77682446671216132
aF0.35664290812070248
aF0.57665851426274795
aF0.35482699257375555
aF0.56941159389250229
aF0.46619008999564121
aF0.42282069911166825
aF0.68093169202803316
aF0.42282069911166825
aF0.42282069911166825
aF0.39943256935151639
aF0.58963651702268671
aF0.53704925728308217
aF0.45206249079777766
aF0.5904419773292553
aF0.38609679242030764
aF0.39196249896780383
aF0.59048534079448867
aF0.44841365161112862
aF0.4482701351695601
aF0.59936685604594553
aF0.48860869296138859
aF0.49337705425045847
aF0.49743709145390108
aF0.5529688079588887
aF0.45095556300987027
aF0.73375637855878806
aF0.47727449136616462
aF0.34215878949476169
aF0.34166943027865465
aF0.45291851525274079
aF0.76431998514953747
aF0.31439652883815233
aF0.33441680803569773
aF0.44241502622024009
aF0.61098427344058459
aF0.46420209078742053
aF0.46420209078742053
aF0.50006551138038069
aF0.50006551138038069
aF0.49989080037589528
aF0.49997815587813804
aF0.42257469770531542
aF0.50961964098968693
aF0.50961964098968693
aF0.5495509693325511
aF0.4801658122880888
aF0.5350394304579128
aF0.5350394304579128
aF0.44374137560099619
aF0.43009098610313695
aF0.46444841054052943
aF0.42990299596056286
aF0.6438111770413274
aF0.41202400227297137
aF0.41202400227297137
aF0.52144092803951358
aF0.62335527724341588
aF0.72556446230512728
aF0.64231415211988685
aF0.14180839793462441
aF0.20218585336664344
aF0.24041941759529112
aF0.24041941759529112
aF0.37468824686624014
aF0.86255766470803874
aF0.42458632937186708
aF0.42459298032887971
aF0.64270443064042282
aF0.47579224962280964
aF-0.09054385765828693
aF0.69195239601441993
aF0.69341671716253239
aF-0.17937934064377598
aF0.5
aF0.5
aF0.5
aF0.5
aF0.5
aF0.5
aF0.5
aF0.5
aF0.49390065085479934
aF0.51786720426728794
aF0.49390065085479934
aF0.49390065085479934
aF0.51715633898874103
aF0.4434100543146951
aF0.58251555216066186
aF0.4434100543146951
aF0.2944289328537455
aF0.48221368444989704
aF0.66866106446670193
aF0.48339833149703448
aF0.37592377465485977
aF0.62982129601499781
aF0.25560044174691693
aF0.62982129601499781
aF0.47572758584131902
aF0.19259509462066218
aF0.81850825393221605
aF0.25813684712276896
aF0.62437788076433787
aF0.59049621490463844
aF0.35821049733320437
aF0.36489960509135622
aF0.41512359615176136
aF0.52867052286700955
aF0.42018419856388117
aF0.60961062773444252
aF0.59444956882433841
aF0.41730791383404464
aF0.49927512186009171
aF0.47244911669684225
aF0.46147054027118306
aF0.60094494039426549
aF0.46147054027118306
aF0.46147054027118306
aF0.34821177530129682
aF0.62085340647177045
aF0.3987343885350047
aF0.57818724874692085
aF0.40261485261721502
aF0.49838980570467267
aF0.32471343666023078
aF0.69575143986482646
aF0.25741081900472296
aF0.76538270419302434
aF0.32389542624565759
aF0.49297133713699315
aF0.58179126681918336
aF0.57984368061279756
aF0.49699328705084134
aF0.27981762012556283
aF0.29364506256494871
aF0.44602778810362215
aF0.20829977205580369
aF0.81941625223821246
aF0.4873151058445237
aF0.4399944526384984
aF0.62086113685183153
aF0.42832267977558725
aF0.68665883799789651
aF0.3843085373042715
aF0.49984206697599931
aF0.36189017178640054
aF0.46141992956442607
aF0.39556860227071727
aF0.55810032636637519
aF0.56492579619636485
aF0.49348077224356235
aF0.51906664531415636
aF0.49348077224356235
aF0.49348077224356235
aF0.4625348276678628
aF0.46276879537805016
aF0.59806977075072443
aF0.46283811914403156
aF0.10262651999002198
aF0.98365348150602494
aF0.10261093039630483
aF0.10660498430663845
aF0.66042540987592657
aF0.45450453366079113
aF0.43855406281794551
aF0.40612096825684174
aF0.33042646918554058
aF0.33042646918554058
aF0.8200335635720839
aF0.33042646918554058
aF0.5
aF0.5
aF0.5
aF0.5
aF0.46794106127613427
aF0.58574182838115241
aF0.46794106127613427
aF0.46794106127613427
aF0.8579211177473548
aF0.29663184574099571
aF0.29663184574099571
aF0.29663184574099571
aF0.5116571159013138
aF0.47229720601703939
aF0.51075105056004799
aF0.50425758228097606
aF0.49382656879763326
aF0.56949576638343591
aF0.49459317442460748
aF0.43265168881386445
aF0.47616064948702647
aF0.70707258601665568
aF0.30887279552849206
aF0.42180207463480607
aF0.37426722306688431
aF0.43817973527155107
aF0.53678026311695637
aF0.61627065033412687
aF0.64108352815785263
aF0.37754437852126382
aF0.55130063887017666
aF0.37754437852126382
aF0.28477960536953145
aF0.38631847807886827
aF0.54574724424053078
aF0.68689049728778995
aF0.54469589090823134
aF0.47830611425750069
aF0.49573471590707624
aF0.47830611425750069
aF0.50219083089881034
aF0.69087548754555272
aF0.36776040438705299
aF0.36776040438705299
aF0.58618110859686756
aF0.48657697523667082
aF0.48603379272595504
aF0.42825892567709906
aF0.37530236161802288
aF0.285615390936656
aF0.42558407792965125
aF0.77230187002026929
aF0.48505772550736487
aF0.54623178004448236
aF0.48287390345520426
aF0.48288988264095178
aF0.46533391227151688
aF0.464396845630348
aF0.48895035396344061
aF0.57334760069062229
aF0.53766438149806284
aF0.38613935930727106
aF0.54443264765781418
aF0.51517618367542761
aF0.46811389474385529
aF0.66736145076690523
aF0.44581595649076539
aF0.36979211527053168
aF0.55296122668109227
aF0.45260262744762009
aF0.47548584247643438
aF0.51312567370901241
aF0.5856599888231353
aF0.33264706385302245
aF0.33264706385302245
aF0.66007138955692624
aF0.44374905612112514
aF0.50146928205081498
aF0.55866235947989762
aF0.48939932820898335
aF0.47612731527155838
aF0.75212739306532728
aF0.37528092961523452
aF0.25840160239475674
aF0.37927565054963847
aF0.61718754090308237
aF0.57026953502974842
aF0.38732696481281692
aF0.34951365259567363
aF0.59312145661628335
aF0.52759193623258149
aF0.49768855037358944
aF0.71954097574116838
aF0.59360866335076323
aF0.28934974653331641
aF0.2148633593832904
aF0.47993203646552135
aF0.62098866975962397
aF0.53982860752985062
aF0.30434090572352041
aF0.29357646213161709
aF0.27199269248111457
aF0.84977819399582544
aF0.34308870154575216
aF0.43344382607945087
aF0.32390224909505116
aF0.5134843939788426
aF0.66599366348708988
aF0.57034851593182867
aF0.47463990620858992
aF0.43398591829395988
aF0.51095572462906191
aF0.57469061429082946
aF0.50478157730187512
aF0.34291466353117345
aF0.54528505444213515
aF0.39797390308992409
aF0.5118720657605903
aF0.67138844360542616
aF0.35894472909689179
aF0.54241598327319462
aF0.29393845374931887
aF0.33574615270371216
aF0.71180025810748948
aF0.50190651862774938
aF0.54175704722063078
aF0.4503916079562596
aF0.50173354265818326
aF0.50153156687497136
aF0.56905083743658635
aF0.41668437154473098
aF0.50102032528733642
aF0.31938184550335535
aF0.49325659363572238
aF0.57214210192825121
aF0.57214210192825121
aF0.45682449808817566
aF0.45702662387546528
aF0.61082122459108035
aF0.45753193834368922
aF0.23064738253359326
aF0.85915511965805835
aF0.32283125401324847
aF0.32316287956382483
aF0.91696168019859536
aF0.16910613222029708
aF0.23404835178072386
aF0.27532846224389318
aF0.61151339281907569
aF0.14914965052709098
aF0.1832313065982423
aF0.75513710042140714
aF0.34349354131749615
aF0.42387989953627564
aF0.74378475280857881
aF0.38616351372412655
aF0.91979672084983455
aF0.22654947385644161
aF0.22654947385644161
aF0.22654947385644161
aF-0.28782237083706325
aF-0.28782237083706325
aF0.8668764897822504
aF-0.28782237083706325
aF-0.0036684458090305585
aF0.99998428703999598
aF-0.0036684458090305585
aF-0.0021238370473334813
aF0.69483661545468511
aF0.69483661545468511
aF-0.13115669187455886
aF-0.13115669187455886
aF0.4692552669881776
aF0.52790193511850159
aF0.52818816324854923
aF0.47131338354232977
aF0.4236999166891191
aF0.53527198988607927
aF0.59635660865521423
aF0.42228079846742061
aF0.49947055707515015
aF0.50030981696100174
aF0.49953740078287279
aF0.5006811708927944
aF0.45442327506079772
aF0.45442327506079772
aF0.45442327506079772
aF0.61684557325886336
aF0.33898832415902819
aF0.35855003558510068
aF0.8049549847422055
aF0.32950912066959887
aF0.50742732862558726
aF0.50147309415123864
aF0.50136967072364447
aF0.48956173797055197
aF0.31736975492770686
aF0.36386832654988044
aF0.28370878958469548
aF0.82848391795091814
aF0.59842242730752515
aF0.53759596221492023
aF0.47031637657818293
aF0.36288246833920301
aF0.43662978371514194
aF0.43284380792613336
aF0.40980574248663432
aF0.67383968667469507
aF0.47655140696239656
aF0.47659818888191846
aF0.47659818888191846
aF0.5644529114382445
aF0.80314226707453529
aF0.34397795415713101
aF0.34397795415713101
aF0.34397795415713101
aF0.40146658441511501
aF0.30016279204600327
aF0.29162275291964052
aF0.81466744739726726
aF0.49258817828021428
aF0.49267844029794056
aF0.38742053569806456
aF0.6037633390688717
aF0.57434564071491179
aF0.49921507519313468
aF0.49916980812007461
aF0.41441633215048174
aF0.7105360213425338
aF0.49112867900394808
aF0.32374528280559733
aF0.38616081481124276
aF0.55307459735073794
aF0.65397382939461479
aF0.39392063756843598
aF0.33354647581699826
aF0.40784263449246611
aF0.70823145288898359
aF0.40747551744184823
aF0.40747551744184823
aF0.39265954870102032
aF0.41652822483768204
aF0.68811679523401181
aF0.44589011296994846
aF0.5157721681297015
aF0.64025767784499654
aF0.36825530124259587
aF0.43409354942229283
aF0.43560718325469278
aF0.64036737648739195
aF0.43560718325469278
aF0.45871819990543211
aF0.65377051161361688
aF0.45412413370246696
aF0.51529203230206588
aF0.31753662903586449
aF0.44244462538385398
aF0.44531036773523069
aF0.53252781943230065
aF0.56776364042366578
aF0.62428730102255925
aF0.52821417282607896
aF0.49665222267609349
aF0.29084656284461374
aF0.60601990450635401
aF0.60635759225610064
aF0.34838556369177243
aF0.37907498554594682
aF0.42692278831110386
aF0.46118442395981268
aF0.460775852495518
aF0.62668291318222247
aF0.44121889944408355
aF0.50306559084173408
aF0.54680883551262116
aF0.50324049070970034
aF0.41344294726463082
aF0.413529584438044
aF0.53365490953265693
aF0.61095879540548881
aF0.38693750318399939
aF0.35078982424089267
aF0.7788012358729286
aF0.34741114380741289
aF0.57605334203564929
aF0.30292559033141925
aF0.67773116521223187
aF0.34216823574375071
aF0.3576793974145327
aF0.365456047831407
aF0.43746537745415881
aF0.7396832898595963
aF0.99995594227663875
aF-0.006356326299001981
aF-0.0068299059068438047
aF-0.0010310222712389709
aF0.69002902573392255
aF0.57595057887150747
aF0.30610341747907843
aF0.31375399941657789
aF0.46387230968064974
aF0.40662558424799677
aF0.77376012273924566
aF0.14412975752793725
aF0.50895933356617007
aF0.44783833181905813
aF0.51087936503466569
aF0.52858632191079247
aF0.31456443682844859
aF0.40995109183647793
aF0.66260698028463239
aF0.54216354272761769
aF0.33978971981478157
aF0.79317398643994441
aF0.3311608160556328
aF0.38177282178348743
aF0.46890513708900061
aF0.46890513708900061
aF0.46890513708900061
aF0.58342430291738523
aF0.42700019296625397
aF0.4368402593777535
aF0.62736188502811518
aF0.48296841326066953
aF0.23331905026029592
aF0.23331905026029592
aF0.23331905026029592
aF0.91470577912075124
aF0.42976140192912765
aF0.66776898118715611
aF0.42976140192912765
aF0.42976140192912765
aF0.5
aF0.5
aF0.5
aF0.5
aF0.5
aF0.5
aF0.5
aF0.5
aF0.37307826887996809
aF0.359068088473599
aF0.74474473467799196
aF0.42099642908087592
aF0.46319622677588862
aF0.46319622677588862
aF0.6156364374524621
aF0.43805283686103408
aF0.68716126566177638
aF0.41944780961565231
aF0.41944780961565231
aF0.41944780961565231
aF0.83741794634809608
aF0.31555623112919901
aF0.31556253441308318
aF0.31555623112919901
aF0.6582774933384351
aF0.43457563202861593
aF0.43463476725349287
aF0.43463476725349287
aF0.44931741826485083
aF0.45049769255059458
aF0.54911422250097564
aF0.54188491148725304
aF0.67988863337501382
aF0.42785124992049062
aF0.42165973284115182
aF0.42059222989643824
aF0.48277866596937113
aF0.47775156431176041
aF0.44276809277648982
aF0.58534999658458164
aF0.31497514207526311
aF0.83139972257625538
aF0.32270937291602647
aF0.32469034757278881
aF0.48696677071498123
aF0.56889198839426647
aF0.48137761948054675
aF0.45552261988125542
aF0.44891858796162576
aF0.46480862712609888
aF0.59965615080506351
aF0.47205671516603392
aF0.55748689406475149
aF0.5564388378815196
aF0.5527126685043271
aF0.27220008948919594
aF0.48261443595436498
aF0.39136797696830528
aF0.56504890205466074
aF0.54280212886374035
aF0.48539307297584228
aF0.48688233098421491
aF0.48443994785048372
aF0.54097790842978655
aF0.5333652972836922
aF0.3799582381665797
aF0.65328778815478861
aF0.3799582381665797
aF0.63965076147147659
aF0.44394839351757021
aF0.44347102626360768
aF0.44394839351757021
aF0.64452573659812973
aF0.34945071715818826
aF0.48081122914896329
aF0.48092757569568545
aF0.45511146714072215
aF0.54074957780156474
aF0.45519603697810374
aF0.54153486914867976
aF0.43084574049218388
aF0.4334853233800316
aF0.43418661477458892
aF0.66177368175565421
aF0.50718111181873482
aF0.50824742561496117
aF0.50745249829593064
aF0.47638622581188789
aF0.75563457288464853
aF0.33728068618610324
aF0.36202930012045703
aF0.42917702273252983
aF0.63609385104874328
aF0.44547566246886655
aF0.44551387938266845
aF0.44548112202798112
aF0.2281049997322617
aF0.21828681362299698
aF0.22278476344924908
aF0.92232636591952954
aF0.42786978101948159
aF0.42786978101948159
aF0.67140327037557879
aF0.42786978101948159
aF0.66390833069580346
aF0.34690291267527068
aF0.56439566510342587
aF0.34690291267527068
aF0.48411095881226812
aF0.51182495987663967
aF0.51945888755735448
aF0.48356411585519682
aF0.64802614747413045
aF0.3772968822991945
aF0.57446949778123413
aF0.32816759577405136
aF0.49026277801676799
aF0.61717117246527009
aF0.32682211194537658
aF0.52146856042592715
aF0.43531897371624761
aF0.5479296366765587
aF0.34684362041766115
aF0.62447578603953624
aF0.51290313968838552
aF0.47074880279645315
aF0.45602844460304853
aF0.55440417718161805
aF0.59771020878812919
aF0.30674621107003619
aF0.67420770560622079
aF0.30674621107003619
aF0.36415882281858658
aF0.36426215287818853
aF0.77516334763239092
aF0.36581856190094242
aF0.71822588662213982
aF0.4016243014471606
aF0.40192961667436461
aF0.4016243014471606
aF0.49003835238085236
aF0.50450066459607912
aF0.50431805964386656
aF0.50100377976121047
aF0.45396516979903312
aF0.52973257513343874
aF0.49548201561314098
aF0.51749067204711041
aF0.3891630853031417
aF0.51455172895517809
aF0.45666791134797241
aF0.61257083672964452
aF0.61873959230412967
aF0.45356801399944829
aF0.45369398013819273
aF0.45343042021712737
aF0.45687070721524731
aF0.54109710925753551
aF0.45672700694399287
aF0.53840831751539686
aF0.52025910164788036
aF0.48944575772863158
aF0.52036014874226055
aF0.46797289771408623
aF0.61707399226137305
aF0.46686748149997892
aF0.51440934298127583
aF0.36964506035662076
aF0.47757407453361977
aF0.51224542907751891
aF0.57263472832311912
aF0.42616556834269559
aF0.60885366136112573
aF0.39433008371077516
aF0.48142295435626359
aF0.49196843714479466
aF0.45718255128047819
aF0.45718255128047819
aF0.45718255128047819
aF0.61069824333628053
aF0.53176959792929368
aF0.70816297316906596
aF0.24937881388855918
aF0.39183734550703758
aF0.34506475070795029
aF0.5705357615521135
aF0.34722202275806868
aF0.65943622096515553
aF0.54587926351222593
aF0.55594607570359145
aF0.58078356833100042
aF0.23586063116560271
aF0.5002204357277571
aF0.51424158219491201
aF0.47530675512145354
aF0.50933152205407528
aF0.49508844906701499
aF0.59083295008019576
aF0.40077839469532212
aF0.49515707714359836
aF0.53922637443301702
aF0.41435176591876505
aF0.59069102889736125
aF0.43431744102211856
aF0.46991023953756644
aF0.37979513274272364
aF0.56334474126588374
aF0.56354478651723727
aF0.78089601180196966
aF0.37347191539372215
aF0.33273656585685141
aF0.37417445784782222
aF0.80880489406291822
aF0.21378525412873431
aF0.477428701654524
aF0.2686863288175631
aF0.57774634903366529
aF0.45247997924360045
aF0.54203293710163214
aF0.40947688537811183
aF0.24927756504199747
aF0.51990516103980966
aF0.31066543945288588
aF0.75567605746142807
aF0.41926874698382705
aF0.41926874698382705
aF0.68748902057257211
aF0.41926874698382705
aF0.46785413326903563
aF0.58643544835974648
aF0.46754998390021485
aF0.46754998390021485
aF0.46146882653308979
aF0.46146882653308979
aF0.60094888835450821
aF0.46146882653308979
aF0.5763232620812696
aF0.41709683919281015
aF0.41709683919281015
aF0.56560759458721765
aF0.58918397161780522
aF0.46663019826024554
aF0.46650570160685606
aF0.46635923495580972
aF0.47889384771658694
aF0.48256398215060736
aF0.55232490651358679
aF0.48242085713089627
aF0.55579576978726752
aF0.47731018591433783
aF0.48100960947361093
aF0.4815556087338651
aF0.40447907780176706
aF0.42786915405398945
aF0.36889739077728861
aF0.71919356066879792
aF0.36065963970129677
aF0.39390387064116306
aF0.33006223746447833
aF0.77834650663080829
aF0.38918743245546361
aF0.63272936307644023
aF0.42143211227661309
aF0.52017465361326309
aF0.40786208367949622
aF0.70777507874314061
aF0.40786208367949622
aF0.40786208367949622
aF0.13173743315428219
aF0.79847741574146591
aF0.5724721075848781
aF0.13173743315428219
aF0.44762675119047812
aF0.53847971767832414
aF0.50438264192114801
aF0.50524057219939589
aF0.61414473782772627
aF0.42423377902202752
aF0.47145548648313468
aF0.46966122471431887
aF0.50265428676738255
aF0.50970518968710499
aF0.56442447145514296
aF0.41105267743075052
aF0.7593452555875434
aF0.48671191421771476
aF0.20995687790939133
aF0.37739158018397445
aF0.45466039922390489
aF0.52628678711260679
aF0.50795905069868608
aF0.50821623537775595
aF0.40450820056857612
aF0.55548600460393305
aF0.55531462269969045
aF0.46843791923565758
aF0.49193762504162042
aF0.4918008211658344
aF0.49194501984571692
aF0.52356415348839358
aF0.54423397449526956
aF0.44815925851637661
aF0.53305314575068552
aF0.4677787979552217
aF0.32629862311713781
aF0.63183433634090336
aF0.62277105626736562
aF0.32629862311713781
aF0.74735640515887281
aF0.57797392364234557
aF0.23173751018930741
aF0.23173751018930741
aF0.48319577783867929
aF0.57547699456183943
aF0.46674161597104957
aF0.46636930959238698
aF-0.011985869649390178
aF0.6738323744287632
aF0.73868979215174657
aF-0.011985869649390178
aF0.40936599226892006
aF0.40930747331863909
aF0.41067291549186119
aF0.70443923310716339
aF0.38748743103079802
aF0.78158675285527768
aF0.29751241602607381
aF0.38789431661810153
aF0.47918001903479879
aF0.4590300871541706
aF0.73013052427124681
aF0.16305614362065149
aF0.39228090211729877
aF0.43166693442249038
aF0.5953723755353505
aF0.55254962311969869
aF0.56162542738173038
aF0.4302741432866814
aF0.43006975999538299
aF0.56078609333213203
aF0.52990505408015587
aF0.59559528181412225
aF0.44454531855737955
aF0.40846830194004224
aF0.43385660186268349
aF0.34020384206580556
aF0.7126606914318826
aF0.43375630687248845
aF0.53412249245554944
aF0.46390269403172119
aF0.38761709698960639
aF0.59098260519623835
aF0.37117777699757637
aF0.49412837990616842
aF0.69304289376858863
aF0.37115461661052218
aF0.44737160714502311
aF0.63212019059783042
aF0.44737160714502311
aF0.44737160714502311
aF0.65361477564666881
aF0.26909740114845243
aF0.65429522630488179
aF0.26883465287448904
aF0.19366509455962616
aF0.59406616257231504
aF0.75776112832045461
aF0.18808853777496962
aF0.4424532147242683
aF0.48833354273788671
aF0.50247946503455543
aF0.55971411545164029
aF0.37296915687383703
aF0.3949690479199725
aF0.62696579591768364
aF0.55839712566892297
aF0.31390752887141204
aF0.78468211248394604
aF0.29695702221598103
aF0.44446886575123873
aF0.38303599626532975
aF0.71450722241985798
aF0.41852451351146003
aF0.40938989516704188
aF0.26335046567148784
aF0.50413034137591806
aF0.68918691906600582
aF0.4489103715922782
aF0.54237937817887338
aF0.45363666110472362
aF0.54245015395869778
aF0.45363666110472362
aF0.41231126302033383
aF0.45992251227330633
aF0.63792004812123426
aF0.45992251227330633
aF0.45516186829701105
aF0.48509838001395539
aF0.45516186829701105
aF0.59189096040114098
aF0.46665002201825245
aF0.60181099914998826
aF0.45875608866616208
aF0.45782543547096827
aF0.48399425888717584
aF0.48442143313327263
aF0.54487514303468876
aF0.48393854050725016
aF0.46810926030517186
aF0.47606266630739769
aF0.60540984561129396
aF0.43326317291196753
aF0.4922472764845634
aF0.54370110336206379
aF0.48132919710312255
aF0.48000409687050327
aF0.3805963617377815
aF0.4798849029681983
aF0.58979599954838702
aF0.52630558447719855
aF0.23301406243438616
aF0.62700416770063461
aF0.23689217754086156
aF0.70459372450640478
aF0.5717909472466367
aF0.4169423309418146
aF0.41663767008767832
aF0.57063758829883515
aF0.62262462488385106
aF0.55418321947947291
aF0.39071601497551034
aF0.39058997859298294
aF0.45029146769789485
aF0.46626340067987676
aF0.45376462050656613
aF0.6115011892723059
aF0.50024898864791345
aF0.50089485920307208
aF0.49883981652756726
aF0.50001412662785572
aF0.47056489964689102
aF0.46922529770062787
aF0.58129984990233041
aF0.46956019818719369
aF0.49301252720836503
aF0.50267666629002961
aF0.50159663913576513
aF0.50264861363667201
aF0.66857320641696694
aF0.42934441018112557
aF0.42934441018112557
aF0.42934441018112557
aF0.33088278841990171
aF0.38951079512771591
aF0.79329345209318081
aF0.33088278841990171
aF0.63964436376931422
aF0.42648649462561339
aF0.47652902134822694
aF0.42647913150939398
aF0.35319478223871537
aF0.66458131049412728
aF0.54687671107935865
aF0.36675739995299161
aF0.20129696257922244
aF0.20129696257922244
aF0.93722962654666331
aF0.20139437141082273
aF0.52121465282408352
aF0.53853632612434554
aF0.4009194384165965
aF0.52685625651185286
aF0.53045979915494768
aF0.15095392517980322
aF0.53045979915494768
aF0.64376837094858541
aF0.56364842465467968
aF0.39124672251648279
aF0.61331269155669554
aF0.39124672251648279
aF0.45113695427780115
aF0.54643998471199573
aF0.50613543481733936
aF0.49163575258026737
aF0.74286853699504851
aF0.37701249346282106
aF0.40480797458638174
aF0.37701249346282106
aF0.49852325980987522
aF0.46045553651829552
aF0.49850689076414884
aF0.53939423261548269
aF0.51899295464252437
aF0.26665946435734128
aF0.26727530469083421
aF0.76687870918581402
aF0.60396057253410707
aF0.58711207723740355
aF0.38122810689887177
aF0.3810461469383426
aF0.49852275444947647
aF0.26562990855781721
aF0.58348770980016051
aF0.58348770980016051
aF0.44374461165613804
aF0.5943308823491692
aF0.43911002662641235
aF0.50699497672891458
aF0.57017326765506127
aF0.47453907223774106
aF0.47398284650073791
aF0.47440001580349028
aF0.47000928061850206
aF0.47233403465858881
aF0.47000928061850206
aF0.57886363849191247
aF0.36861518191402348
aF0.76965482067448521
aF0.36861518191402348
aF0.36861518191402348
aF0.76189615771003705
aF0.37394930354558414
aF0.37394930354558414
aF0.37394930354558414
aF0.65387286189224758
aF0.42755774534971253
aF0.42755774534971253
aF0.45479559063801694
aF0.35539518396551356
aF0.2187274159591677
aF0.40860466091954845
aF0.81172335915431482
aF0.89240506518043272
aF0.098015286842496885
aF0.4294172874147873
aF0.098015286842496885
aF0.91807520241596297
aF0.2445472153704166
aF0.22060664333091107
aF0.22060664333091107
aF0.42000362198834224
aF0.48456313408848245
aF0.64386806800978669
aF0.41740799896068831
aF0.24413886443321225
aF0.30531955669865335
aF0.24194910433888692
aF0.88805225864259252
aF0.49801199909623062
aF0.48114704938904301
aF0.55192231678687309
aF0.46461093600237641
aF0.37808795779873255
aF0.73444600029828455
aF0.39838403358116964
aF0.39865866427438068
aF0.4111724725663819
aF0.4068266950215757
aF0.70681878402874654
aF0.4072302107722291
aF0.5
aF0.5
aF0.5
aF0.5
aF0.46836482145133884
aF0.54898637720085064
aF0.50978696109413812
aF0.46836482145133884
aF0.55627556138450152
aF0.47977685778785312
aF0.47977685778785312
aF0.47977685778785312
aF0.35830029952958137
aF0.35830029952958137
aF0.78413180401705229
aF0.35830029952958137
aF0.3186144870440808
aF0.40974393506935669
aF0.30542365887049161
aF0.79831767168319501
aF0.53407947606000028
aF0.45179873964886913
aF0.66385916393930622
aF0.26443907154007024
aF0.31097663073292281
aF0.22834044336540033
aF0.22134609014742646
aF0.8956339014564707
aF0.48158936812359132
aF0.52874155084867736
aF0.55000246691793342
aF0.43127872576866461
aF0.54539092074993611
aF0.50706926828929288
aF0.4099501099955366
aF0.52665967002870595
aF0.12110493667738978
aF0.9332595393560047
aF0.24486631157275968
aF0.23323961063707696
aF0.45278059340735738
aF0.62045886463249444
aF0.45278059340735738
aF0.45278059340735738
aF0.2677806275327595
aF0.45607206370363995
aF0.63508759129802284
aF0.56298806346719288
aF0.47399281520975961
aF0.47131060193389895
aF0.58433189235720717
aF0.46016667329183891
aF0.5
aF0.5
aF0.5
aF0.5
aF0.51380113997973798
aF0.44673100994581316
aF0.58075711542977793
aF0.44627454127027993
aF0.54493116569342548
aF0.48409710618704188
aF0.48409710618704188
aF0.48409710618704188
aF0.63430246739603457
aF0.36123249940488711
aF0.53575085420512092
aF0.42443195384829807
aF0.5
aF0.5
aF0.5
aF0.5
aF0.317159092541693
aF0.317159092541693
aF0.48625714542410636
aF0.74991613435120807
aF0.41876185215203454
aF0.60590027980209615
aF0.53118911255798229
aF0.41876185215203454
aF0.28093813968274128
aF0.53235166751887064
aF0.53235166751887064
aF0.59521186635630507
aF0.38473166623556532
aF0.74561694923520661
aF0.38473166623556532
aF0.38473166623556532
aF0.46548631223664394
aF0.43957916424008642
aF0.47859883837087619
aF0.60086254950393159
aF0.44651957885446569
aF0.55989096586483333
aF0.55997485944562697
aF0.41661796508483051
aF0.37546045490734714
aF0.50066175629552578
aF0.37546045490734714
aF0.68366417149402781
aF0.46974171814080967
aF0.48205945534333927
aF0.58823143265680833
aF0.4482690948378239
aF0.45030408645623798
aF0.44660484246574317
aF0.52165448034211581
aF0.57065484099055763
aF0.46463347953834333
aF0.59981447521358733
aF0.44635612301752942
aF0.4744518273345576
aF0.5
aF0.5
aF0.5
aF0.5
aF0.23616607472883691
aF0.15284247535575482
aF0.94739499508358216
aF0.15266789500375799
aF0.28879141530147995
aF0.17346741736262364
aF0.17748199510465298
aF0.92466681295230946
aF0.18721205539216149
aF0.18721205539216149
aF0.94596772616592306
aF0.18721205539216149
aF0.3424537887535512
aF0.54690289560382255
aF0.48457842066217044
aF0.59059832337812224
aF0.6147340552210474
aF0.32640644783330269
aF0.37262600963145692
aF0.61376765075268436
aF0.45191272411079553
aF0.398367272964537
aF0.69165158963769924
aF0.398367272964537
aF0.26748924281786834
aF0.45337364481340525
aF0.36187736143931593
aF0.76938067199732174
aF0.47086612480609907
aF0.40506385030248765
aF0.37557526711683958
aF0.68786015178837445
aF0.30765494478312688
aF0.76643672041394195
aF0.25588451425702519
aF0.50244034861370201
aF0.45296896917161306
aF0.62004623932640601
aF0.45296896917161306
aF0.45296896917161306
aF0.93921165520610472
aF0.27879925890544693
aF0.14392423375353292
aF0.13942114221753116
aF0.52032643569987969
aF0.4814944134641887
aF0.47801024920615209
aF0.51858435357086141
aF0.65621219699041522
aF0.43565489113938671
aF0.43565489113938671
aF0.43565489113938671
aF0.44836901259228323
aF0.6299965758963002
aF0.44836901259228323
aF0.44836901259228323
aF0.55558155997249525
aF0.4800448347875188
aF0.4800448347875188
aF0.4800448347875188
aF0.51640761652787848
aF0.71272106701290927
aF0.27015938439882242
aF0.39034057084708079
aF0.80867347801483214
aF0.23854798237988079
aF0.33292559565283064
aF0.42225894166623718
aF0.64953939156911078
aF0.43897554176363457
aF0.43897554176363457
aF0.43897554176363457
aF0.7408948186916966
aF0.36007951989192016
aF0.40084314552539801
aF0.40092690066333403
aF0.62275231025243138
aF0.4103084553184479
aF0.46863359928292458
aF0.47350721345358615
aF0.52026614993191656
aF0.4084808729710242
aF0.63030673425784878
aF0.4064233388980707
aF0.49761959203816791
aF0.55209906791038077
aF0.47305462730653847
aF0.47305462730653847
aF0.28326721913228808
aF0.59346538342652888
aF0.55974740464286388
aF0.50422352606263965
aF0.57809686374647562
aF0.43930824037655386
aF0.52898067639659663
aF0.43930824037655386
aF0.50578062437806359
aF0.48081473082244836
aF0.50665307523816772
aF0.50626654637609636
aF0.39592434265517978
aF0.39592434265517978
aF0.72782672709869012
aF0.39592434265517978
aF0.41802280476724485
aF0.41803529329343536
aF0.41802280476724485
aF0.68975384228732162
aF0.37852277731098916
aF0.3647963479377192
aF0.37759974699227916
aF0.76227459793662589
aF0.45521864549972252
aF0.61508369704308852
aF0.45521864549972252
aF0.45521864549972252
aF0.57831339085398303
aF0.26779514822677158
aF0.36880018463837194
aF0.67662826157046718
aF0.39849339703195386
aF0.42506661504688498
aF0.60283910245825745
aF0.54507467547285615
aF0.090326120375590208
aF0.090326120375590208
aF0.98768597030315408
aF0.090326120375590208
aF0.40091081959853381
aF0.56562402890161623
aF0.36623173307675094
aF0.6206563383592687
aF0.4870867107997135
aF0.4870867107997135
aF0.4870867107997135
aF0.53687951021337044
aF0.46251150807390551
aF0.59351615014716452
aF0.46251150807390551
aF0.46894007006534605
aF0.34426758954389985
aF0.18409189197840589
aF0.56690811283716214
aF0.72540002322639296
aF0.66138737781723811
aF0.48766517082500271
aF0.41113284404845457
aF0.39461272429166294
aF0.35214711627109935
aF0.53019803166014912
aF0.35441181197245941
aF0.68503629338893457
aF0.78936763233360929
aF0.41523409486819668
aF0.28152850233647775
aF0.35386592073156947
aF0.67848365331655047
aF0.57163430724262365
aF0.32626228020219611
aF0.32626228020219611
aF0.60650469734520995
aF0.3759640265885752
aF0.57297588128416033
aF0.40311504843672125
aF0.61822618462864165
aF0.38613413073921232
aF0.4773697525789054
aF0.49072898532748227
aF0.29791161891197993
aF0.48107162666114545
aF0.75372825445242708
aF0.33423416309369081
aF0.42715756706334718
aF0.50116091436061438
aF0.56142701456107791
aF0.50117248342141674
aF0.51042343710361748
aF0.42555838016299097
aF0.24536427465946947
aF0.70580758897111129
aF0.3562281316653953
aF0.65662749595189984
aF0.47007734203917512
aF0.47007354985310956
aF0.54714480900728879
aF0.42455674287574857
aF0.42472798243863574
aF0.58308684686650136
aF0.50300624806547922
aF0.53481945914476092
aF0.45945861180722147
aF0.49985062224966353
aF0.56228889079590849
aF0.48923135102102294
aF0.44342459699516551
aF0.49785390954106873
aF0.48143018388026027
aF0.3448391989780874
aF0.7272436343092038
aF0.34702680192444946
aF0.55561087522976627
aF0.53053178797272416
aF0.50362930626920421
aF0.39520893100191684
aF0.42286137974272325
aF0.42286137974272325
aF0.42286137974272325
aF0.68085590293853027
aF0.45203769578800074
aF0.45203769578800074
aF0.62208179909078254
aF0.45203769578800074
aF0.43070207646276043
aF0.50468582996918687
aF0.61218749309715437
aF0.43013301158409234
aF0.49356060410902336
aF0.49356060410902336
aF0.49356060410902336
aF0.51883888656750432
aF0.5
aF0.5
aF0.5
aF0.5
aF0.47977753443322846
aF0.40838954838616298
aF0.35237816123558841
aF0.69199792319510889
aF0.52053006681111935
aF0.2999765025502738
aF0.2999765025502738
aF0.74099706165478341
aF0.32775497041327234
aF0.31329652471601982
aF0.31316743145086573
aF0.83447476106154739
a.