(lp1
F0.5
aF0.5
aF0.5
aF0.5
aF0.57539645556875052
aF0.57539645556875052
aF0.41099746826339323
aF0.41099746826339323
aF0.45267873021259264
aF0.54321447625511121
aF0.54321447625511121
aF0.45267873021259264
aF0.5
aF0.5
aF0.5
aF0.5
aF0.30860669992418382
aF0.77151674981045948
aF0.30860669992418382
aF0.46291004988627571
aF0.6509445549041194
aF0.39056673294247163
aF0.39056673294247163
aF0.52075564392329554
aF0.37628834735343891
aF0.5644325210301584
aF0.5644325210301584
aF0.47036043419179863
aF0.4322928132781762
aF0.4322928132781762
aF0.66284898035987017
aF0.4322928132781762
aF0.47934088011188719
aF0.49531890944895002
aF0.54325299746013878
aF0.47934088011188719
aF0.58446185699094555
aF0.41747275499353254
aF0.55663033999137668
aF0.41747275499353254
aF0.43133109281375365
aF0.64699663922063044
aF0.53916386601719202
aF0.32349831961031522
aF0.51840001354187815
aF0.4937142986113125
aF0.4937142986113125
aF0.4937142986113125
aF0.60370062381498391
aF0.50308385317915327
aF0.46954492963387634
aF0.40246708254332264
aF0.23570226039551587
aF0.47140452079103173
aF0.70710678118654757
aF0.47140452079103173
aF0.43643578047198478
aF0.43643578047198478
aF0.6546536707079772
aF0.43643578047198478
aF0.49153915231142431
aF0.32769276820761623
aF0.73730872846713646
aF0.32769276820761623
aF0.5
aF0.5
aF0.5
aF0.5
aF0.4758309514308865
aF0.55513611000270091
aF0.55513611000270091
aF0.39652579285907208
aF0.47457899787624952
aF0.47457899787624952
aF0.56949479745149945
aF0.47457899787624952
aF0.62217101683825515
aF0.4147806778921701
aF0.4147806778921701
aF0.51847584736521268
aF0.49153915231142431
aF0.32769276820761623
aF0.32769276820761623
aF0.73730872846713646
aF0.5
aF0.5
aF0.5
aF0.5
aF0.31622776601683794
aF0.63245553203367588
aF0.31622776601683794
aF0.63245553203367588
aF0.43666688230468648
aF0.49488913327864459
aF0.61133363522656103
aF0.43666688230468648
aF0.3553711577967667
aF0.3553711577967667
aF0.65997500733685244
aF0.55844039082349051
aF0.36293309315564887
aF0.57032343210173386
aF0.46662826262869139
aF0.57032343210173386
aF0.65375380269402006
aF0.53488947493147099
aF0.41602514716892186
aF0.33678226199388911
aF0.5
aF0.5
aF0.5
aF0.5
aF0.44172610429938614
aF0.44172610429938614
aF0.55215763037423271
aF0.55215763037423271
aF0.47885213068057331
aF0.55866081912733556
aF0.47885213068057331
aF0.47885213068057331
aF0.67357531405456339
aF0.48112522432468813
aF0.48112522432468813
aF0.28867513459481287
aF0.6546536707079772
aF0.43643578047198478
aF0.43643578047198478
aF0.43643578047198478
aF0.42426406871192851
aF0.56568542494923801
aF0.42426406871192851
aF0.56568542494923801
aF0.62217101683825515
aF0.4147806778921701
aF0.4147806778921701
aF0.51847584736521268
aF0.5
aF0.5
aF0.5
aF0.5
aF0.47809144373375745
aF0.35856858280031811
aF0.35856858280031811
aF0.71713716560063623
aF0.5
aF0.5
aF0.5
aF0.5
aF0.3779644730092272
aF0.3779644730092272
aF0.3779644730092272
aF0.7559289460184544
aF0.59408852578600457
aF0.4950737714883372
aF0.39605901719066977
aF0.4950737714883372
aF0.7559289460184544
aF0.3779644730092272
aF0.3779644730092272
aF0.3779644730092272
aF0.62861855709371217
aF0.44901325506693729
aF0.44901325506693729
aF0.44901325506693729
aF0.46188021535170054
aF0.57735026918962573
aF0.57735026918962573
aF0.34641016151377541
aF0.44537266138789561
aF0.58241040335340188
aF0.51389153237064877
aF0.44537266138789561
aF0.457495710997814
aF0.457495710997814
aF0.457495710997814
aF0.60999428133041866
aF0.44901325506693729
aF0.62861855709371217
aF0.44901325506693729
aF0.44901325506693729
aF0.44901325506693729
aF0.44901325506693729
aF0.44901325506693729
aF0.62861855709371217
aF0.60370062381498391
aF0.50308385317915327
aF0.46954492963387634
aF0.40246708254332264
aF0.39735970711951313
aF0.52981294282601754
aF0.52981294282601754
aF0.52981294282601754
aF0.5
aF0.5
aF0.5
aF0.5
aF0.51847584736521268
aF0.4147806778921701
aF0.62217101683825515
aF0.4147806778921701
aF0.5
aF0.5
aF0.5
aF0.5
aF0.457495710997814
aF0.457495710997814
aF0.457495710997814
aF0.60999428133041866
aF0.5
aF0.5
aF0.5
aF0.5
aF0.46816458878452227
aF0.46816458878452227
aF0.46816458878452227
aF0.58520573598065284
aF0.35623524993954825
aF0.4274822999274579
aF0.7124704998790965
aF0.4274822999274579
aF0.44172610429938614
aF0.55215763037423271
aF0.44172610429938614
aF0.55215763037423271
aF0.5
aF0.5
aF0.5
aF0.5
aF0.457495710997814
aF0.457495710997814
aF0.457495710997814
aF0.60999428133041866
aF0.69631062382279141
aF0.3481553119113957
aF0.3481553119113957
aF0.5222329678670935
aF0.3481553119113957
aF0.69631062382279141
aF0.5222329678670935
aF0.3481553119113957
aF0.44112877325628463
aF0.51465023546566535
aF0.58817169767504618
aF0.44112877325628463
aF0.57932412202165751
aF0.49656353316142077
aF0.49656353316142077
aF0.41380294430118397
aF0.4923659639173309
aF0.3692744729379982
aF0.4923659639173309
aF0.61545745489666359
aF0.5
aF0.5
aF0.5
aF0.5
aF0.69631062382279141
aF0.3481553119113957
aF0.3481553119113957
aF0.5222329678670935
aF0.43643578047198478
aF0.43643578047198478
aF0.6546536707079772
aF0.43643578047198478
aF0.46816458878452227
aF0.46816458878452227
aF0.46816458878452227
aF0.58520573598065284
aF0.3481553119113957
aF0.69631062382279141
aF0.3481553119113957
aF0.5222329678670935
aF0.47286624374346037
aF0.39405520311955033
aF0.63048832499128049
aF0.47286624374346037
aF0.46358632497276531
aF0.46358632497276531
aF0.46358632497276531
aF0.59603956067926966
aF0.5
aF0.5
aF0.5
aF0.5
aF0.48989794855663565
aF0.65319726474218087
aF0.40824829046386302
aF0.40824829046386302
aF0.62217101683825515
aF0.51847584736521268
aF0.4147806778921701
aF0.4147806778921701
aF0.39056673294247163
aF0.6509445549041194
aF0.39056673294247163
aF0.52075564392329554
aF0.3273268353539886
aF0.54554472558998102
aF0.54554472558998102
aF0.54554472558998102
aF0.43273106758477126
aF0.43273106758477126
aF0.57697475677969512
aF0.54091383448096408
aF0.53570479556316386
aF0.44642066296930316
aF0.53570479556316386
aF0.47618204050059004
aF0.47885213068057331
aF0.47885213068057331
aF0.55866081912733556
aF0.47885213068057331
aF0.57498890849994588
aF0.51110125199995193
aF0.38332593899996392
aF0.51110125199995193
aF0.46358632497276531
aF0.59603956067926966
aF0.46358632497276531
aF0.46358632497276531
aF0.5
aF0.5
aF0.5
aF0.5
aF0.35260519008276292
aF0.45334953010640949
aF0.35260519008276292
aF0.73879182684007483
aF0.48189987357505998
aF0.55074271265721142
aF0.48189987357505998
aF0.48189987357505998
aF0.44666250028691856
aF0.59555000038255812
aF0.49629166698546512
aF0.44666250028691856
aF0.36178730264621084
aF0.50650222370469511
aF0.65121714476317949
aF0.43414476317545297
aF0.5
aF0.5
aF0.5
aF0.5
aF0.4112204961464585
aF0.4112204961464585
aF0.50260282862344929
aF0.63967632733893531
aF0.62861855709371217
aF0.44901325506693729
aF0.44901325506693729
aF0.44901325506693729
aF0.58520573598065284
aF0.46816458878452227
aF0.46816458878452227
aF0.46816458878452227
aF0.49393916995360654
aF0.60370342994329684
aF0.38417490996391618
aF0.49393916995360654
aF0.42426406871192851
aF0.56568542494923801
aF0.56568542494923801
aF0.42426406871192851
aF0.44776673559449515
aF0.54727045461549406
aF0.44776673559449515
aF0.54727045461549406
aF0.5
aF0.5
aF0.5
aF0.5
aF0.43643578047198478
aF0.43643578047198478
aF0.43643578047198478
aF0.6546536707079772
aF0.42823018205775137
aF0.58881650032940813
aF0.42823018205775137
aF0.53528772757218923
aF0.5
aF0.5
aF0.5
aF0.5
aF0.5
aF0.5
aF0.5
aF0.5
aF0.2581988897471611
aF0.7745966692414834
aF0.5163977794943222
aF0.2581988897471611
aF0.5
aF0.5
aF0.5
aF0.5
aF0.5388159060803247
aF0.5388159060803247
aF0.5388159060803247
aF0.35921060405354982
aF0.44901325506693729
aF0.44901325506693729
aF0.62861855709371217
aF0.44901325506693729
aF0.38486850434308906
aF0.59013170665940329
aF0.46184220521170688
aF0.5388159060803247
aF0.52668516238258756
aF0.52668516238258756
aF0.52668516238258756
aF0.40964401518645699
aF0.46816458878452227
aF0.46816458878452227
aF0.58520573598065284
aF0.46816458878452227
aF0.52572954520598825
aF0.4381079543383235
aF0.61335113607365288
aF0.39429715890449119
aF0.5
aF0.5
aF0.5
aF0.5
aF0.44539933408304444
aF0.44539933408304444
aF0.44539933408304444
aF0.63628476297577774
aF0.43412157106222965
aF0.55815630565143803
aF0.43412157106222965
aF0.55815630565143803
aF0.5
aF0.5
aF0.5
aF0.5
aF0.5
aF0.5
aF0.5
aF0.5
aF0.44112877325628463
aF0.44112877325628463
aF0.51465023546566535
aF0.58817169767504618
aF0.5
aF0.5
aF0.5
aF0.5
aF0.5
aF0.5
aF0.5
aF0.5
aF0.5082556106787729
aF0.47437190330018797
aF0.5082556106787729
aF0.5082556106787729
aF0.5
aF0.5
aF0.5
aF0.5
aF0.58834840541455202
aF0.32686022523030672
aF0.52297636036849071
aF0.52297636036849071
aF0.6546536707079772
aF0.43643578047198478
aF0.43643578047198478
aF0.43643578047198478
aF0.53916386601719202
aF0.43133109281375365
aF0.32349831961031522
aF0.64699663922063044
aF0.5
aF0.5
aF0.5
aF0.5
aF0.457495710997814
aF0.457495710997814
aF0.457495710997814
aF0.60999428133041866
aF0.52981294282601754
aF0.39735970711951313
aF0.52981294282601754
aF0.52981294282601754
aF0.5
aF0.5
aF0.5
aF0.5
aF0.5388159060803247
aF0.41907903806247476
aF0.59868434008924964
aF0.41907903806247476
aF0.23570226039551587
aF0.47140452079103173
aF0.70710678118654757
aF0.47140452079103173
aF0.46816458878452227
aF0.58520573598065284
aF0.46816458878452227
aF0.46816458878452227
aF0.55470019622522915
aF0.27735009811261457
aF0.55470019622522915
aF0.55470019622522915
aF0.52174919474995085
aF0.67082039324993692
aF0.37267799624996495
aF0.37267799624996495
aF0.82807867121082512
aF0.34503277967117713
aF0.27602622373694169
aF0.34503277967117713
aF0.457495710997814
aF0.457495710997814
aF0.457495710997814
aF0.60999428133041866
aF0.56361877755993217
aF0.56361877755993217
aF0.36232635700281351
aF0.48310180933708469
aF0.41983210073284705
aF0.35985608634244032
aF0.41983210073284705
aF0.71971217268488064
aF0.457495710997814
aF0.457495710997814
aF0.457495710997814
aF0.60999428133041866
aF0.457495710997814
aF0.457495710997814
aF0.60999428133041866
aF0.457495710997814
aF0.44721359549995793
aF0.59628479399994394
aF0.29814239699997197
aF0.59628479399994394
aF0.41602514716892186
aF0.69337524528153649
aF0.41602514716892186
aF0.41602514716892186
aF0.457495710997814
aF0.60999428133041866
aF0.457495710997814
aF0.457495710997814
aF0.31234752377721214
aF0.41646336503628284
aF0.52057920629535359
aF0.67675296818395958
aF0.42215852683817512
aF0.63323779025726268
aF0.42215852683817512
aF0.49251828131120434
aF0.65894652766046913
aF0.33945730212812047
aF0.33945730212812047
aF0.57907422127738195
aF0.46816458878452227
aF0.46816458878452227
aF0.58520573598065284
aF0.46816458878452227
aF0.52981294282601754
aF0.39735970711951313
aF0.52981294282601754
aF0.52981294282601754
aF0.71971217268488064
aF0.41983210073284705
aF0.35985608634244032
aF0.41983210073284705
aF0.55215763037423271
aF0.44172610429938614
aF0.44172610429938614
aF0.55215763037423271
aF0.39735970711951313
aF0.52981294282601754
aF0.52981294282601754
aF0.52981294282601754
aF0.44112877325628463
aF0.44112877325628463
aF0.51465023546566535
aF0.58817169767504618
aF0.42215852683817512
aF0.63323779025726268
aF0.49251828131120423
aF0.42215852683817512
aF0.43643578047198478
aF0.43643578047198478
aF0.43643578047198478
aF0.6546536707079772
aF0.5
aF0.5
aF0.5
aF0.5
aF0.69566559299993458
aF0.14907119849998599
aF0.49690399499995325
aF0.49690399499995325
aF0.5
aF0.5
aF0.5
aF0.5
aF0.5
aF0.5
aF0.5
aF0.5
aF0.48512062370504716
aF0.54219363825858213
aF0.48512062370504716
aF0.48512062370504716
aF0.6092717958449424
aF0.6092717958449424
aF0.26111648393354675
aF0.4351941398892446
aF0.47172817652486326
aF0.47172817652486326
aF0.47172817652486326
aF0.57655666019705509
aF0.6815542010964778
aF0.39757328397294539
aF0.51116565082235832
aF0.3407771005482389
aF0.58585009941370747
aF0.3254722774520597
aF0.45566118843288356
aF0.58585009941370747
aF0.46816458878452227
aF0.58520573598065284
aF0.46816458878452227
aF0.46816458878452227
aF0.3779644730092272
aF0.7559289460184544
aF0.3779644730092272
aF0.3779644730092272
aF0.43643578047198478
aF0.43643578047198478
aF0.6546536707079772
aF0.43643578047198478
aF0.48507125007266588
aF0.58208550008719917
aF0.48507125007266594
aF0.43656412506539932
aF0.62279915532921837
aF0.54494926091306606
aF0.31139957766460918
aF0.46709936649691375
aF0.43643578047198478
aF0.43643578047198478
aF0.6546536707079772
aF0.43643578047198478
aF0.48304589153964794
aF0.41403933560541256
aF0.34503277967117713
aF0.69006555934235425
aF0.5
aF0.5
aF0.5
aF0.5
aF0.5
aF0.5
aF0.5
aF0.5
aF0.457495710997814
aF0.457495710997814
aF0.60999428133041866
aF0.457495710997814
aF0.52981294282601754
aF0.52981294282601754
aF0.52981294282601754
aF0.39735970711951313
aF0.5
aF0.5
aF0.5
aF0.5
aF0.5
aF0.5
aF0.5
aF0.5
aF0.5
aF0.5
aF0.5
aF0.5
aF0.457495710997814
aF0.60999428133041866
aF0.457495710997814
aF0.457495710997814
aF0.55401652192813089
aF0.43939241394300033
aF0.43939241394300033
aF0.55401652192813089
aF0.39735970711951313
aF0.52981294282601754
aF0.52981294282601754
aF0.52981294282601754
aF0.46175709653961011
aF0.46175709653961011
aF0.60028422550149318
aF0.46175709653961011
aF0.44901325506693729
aF0.62861855709371217
aF0.44901325506693729
aF0.44901325506693729
aF0.43643578047198478
aF0.43643578047198478
aF0.6546536707079772
aF0.43643578047198478
aF0.5
aF0.5
aF0.5
aF0.5
aF0.43643578047198478
aF0.6546536707079772
aF0.43643578047198478
aF0.43643578047198478
aF0.36765801200722315
aF0.36765801200722315
aF0.60400959115472375
aF0.60400959115472375
aF0.47885213068057331
aF0.55866081912733556
aF0.47885213068057331
aF0.47885213068057331
aF0.40249223594996214
aF0.58137767414994534
aF0.40249223594996214
aF0.58137767414994534
aF0.54307538664170452
aF0.40730653998127841
aF0.40730653998127841
aF0.61095980997191768
aF0.69337524528153649
aF0.41602514716892186
aF0.41602514716892186
aF0.41602514716892186
aF0.5383819020581655
aF0.5383819020581655
aF0.48454371185234896
aF0.43070552164653242
aF0.37403217960168539
aF0.82821411197516048
aF0.32059901108715888
aF0.26716584257263243
aF0.6804138174397717
aF0.40824829046386302
aF0.54433105395181736
aF0.27216552697590868
aF0.43133109281375365
aF0.64699663922063044
aF0.53916386601719202
aF0.32349831961031522
aF0.37144360739924587
aF0.33767600672658715
aF0.54028161076253944
aF0.6753520134531743
aF0.4923659639173309
aF0.61545745489666359
aF0.3692744729379982
aF0.4923659639173309
aF0.57539645556875052
aF0.57539645556875052
aF0.41099746826339323
aF0.41099746826339323
aF0.5
aF0.5
aF0.5
aF0.5
aF0.5
aF0.5
aF0.5
aF0.5
aF0.69337524528153649
aF0.41602514716892186
aF0.41602514716892186
aF0.41602514716892186
aF0.5
aF0.5
aF0.5
aF0.5
aF0.43643578047198478
aF0.6546536707079772
aF0.43643578047198478
aF0.43643578047198478
aF0.43580096445528327
aF0.5603155257282213
aF0.49805824509175228
aF0.49805824509175228
aF0.59603956067926966
aF0.46358632497276531
aF0.46358632497276531
aF0.46358632497276531
aF0.37628834735343891
aF0.5644325210301584
aF0.5644325210301584
aF0.47036043419179863
aF0.457495710997814
aF0.457495710997814
aF0.60999428133041866
aF0.457495710997814
aF0.62861855709371217
aF0.44901325506693729
aF0.44901325506693729
aF0.44901325506693729
aF0.6041445928029443
aF0.38837866680189281
aF0.34522548160168248
aF0.6041445928029443
aF0.36363636363636365
aF0.45454545454545453
aF0.72727272727272729
aF0.36363636363636365
aF0.5
aF0.5
aF0.5
aF0.5
aF0.5
aF0.5
aF0.5
aF0.5
aF0.55470019622522904
aF0.64715022892943397
aF0.36980013081681939
aF0.36980013081681939
aF0.41602514716892186
aF0.41602514716892186
aF0.41602514716892186
aF0.69337524528153649
aF0.52026598171447191
aF0.52026598171447191
aF0.43355498476205995
aF0.52026598171447191
aF0.48666426339228763
aF0.32444284226152509
aF0.48666426339228763
aF0.64888568452305018
aF0.43643578047198478
aF0.43643578047198478
aF0.43643578047198478
aF0.6546536707079772
aF0.54554472558998102
aF0.3273268353539886
aF0.54554472558998102
aF0.54554472558998102
aF0.43643578047198478
aF0.43643578047198478
aF0.43643578047198478
aF0.6546536707079772
aF0.45584230583855179
aF0.45584230583855179
aF0.68376345875782762
aF0.34188172937891381
aF0.60999428133041866
aF0.457495710997814
aF0.457495710997814
aF0.457495710997814
aF0.47457899787624952
aF0.56949479745149945
aF0.47457899787624952
aF0.47457899787624952
aF0.44901325506693729
aF0.44901325506693729
aF0.62861855709371217
aF0.44901325506693729
aF0.5
aF0.5
aF0.5
aF0.5
aF0.38332593899996392
aF0.57498890849994588
aF0.51110125199995193
aF0.51110125199995193
aF0.58834840541455213
aF0.39223227027636809
aF0.39223227027636809
aF0.58834840541455213
aF0.5
aF0.5
aF0.5
aF0.5
aF0.77005354108682
aF0.23693955110363693
aF0.35540932665545538
aF0.47387910220727386
aF0.3254722774520597
aF0.58585009941370747
aF0.58585009941370747
aF0.45566118843288356
aF0.51670361178615676
aF0.31797145340686572
aF0.63594290681373145
aF0.47695718011029853
aF0.6509445549041194
aF0.39056673294247163
aF0.52075564392329554
aF0.39056673294247163
aF0.53156439534807631
aF0.43189607122031204
aF0.49834162063882159
aF0.53156439534807631
aF0.7559289460184544
aF0.3779644730092272
aF0.3779644730092272
aF0.3779644730092272
aF0.41602514716892186
aF0.69337524528153649
aF0.41602514716892186
aF0.41602514716892186
aF0.5
aF0.5
aF0.5
aF0.5
aF0.34412360080584259
aF0.34412360080584259
aF0.80295506854696608
aF0.34412360080584259
aF0.32444284226152509
aF0.48666426339228763
aF0.48666426339228763
aF0.64888568452305018
aF0.38714713479666185
aF0.53232731034541003
aF0.53232731034541003
aF0.53232731034541003
aF0.37565274200835702
aF0.2504351613389047
aF0.87652306468616636
aF0.16695677422593644
aF0.53528772757218923
aF0.53528772757218923
aF0.37470140930053247
aF0.53528772757218923
aF0.5
aF0.5
aF0.5
aF0.5
aF0.457495710997814
aF0.60999428133041866
aF0.457495710997814
aF0.457495710997814
aF0.59628479399994394
aF0.44721359549995793
aF0.29814239699997197
aF0.59628479399994394
aF0.43643578047198478
aF0.43643578047198478
aF0.43643578047198478
aF0.6546536707079772
aF0.62217101683825515
aF0.51847584736521268
aF0.4147806778921701
aF0.4147806778921701
aF0.60999428133041866
aF0.457495710997814
aF0.457495710997814
aF0.457495710997814
aF0.58834840541455213
aF0.39223227027636809
aF0.58834840541455213
aF0.39223227027636809
aF0.65489237761498309
aF0.56133632366998565
aF0.42100224275248921
aF0.28066816183499282
aF0.39056673294247163
aF0.6509445549041194
aF0.39056673294247163
aF0.52075564392329554
aF0.46816458878452227
aF0.46816458878452227
aF0.58520573598065284
aF0.46816458878452227
aF0.50535477930422457
aF0.40817116789956598
aF0.40817116789956598
aF0.64141183527074652
aF0.47031708100177233
aF0.50951017108525332
aF0.50951017108525332
aF0.50951017108525332
aF0.4506059090593329
aF0.4506059090593329
aF0.6083179772300995
aF0.4731362045122996
aF0.35444060250416792
aF0.35444060250416792
aF0.49621684350583511
aF0.70888120500833585
aF0.43643578047198478
aF0.6546536707079772
aF0.43643578047198478
aF0.43643578047198478
aF0.5
aF0.5
aF0.5
aF0.5
aF0.46077278325541832
aF0.46077278325541832
aF0.60254902425708545
aF0.46077278325541832
aF0.39735970711951313
aF0.52981294282601754
aF0.52981294282601754
aF0.52981294282601754
aF0.60999428133041866
aF0.457495710997814
aF0.457495710997814
aF0.457495710997814
aF0.457495710997814
aF0.60999428133041866
aF0.457495710997814
aF0.457495710997814
aF0.457495710997814
aF0.60999428133041866
aF0.457495710997814
aF0.457495710997814
aF0.43643578047198478
aF0.43643578047198478
aF0.43643578047198478
aF0.6546536707079772
aF0.47885213068057331
aF0.47885213068057331
aF0.55866081912733545
aF0.47885213068057331
aF0.60999428133041866
aF0.457495710997814
aF0.457495710997814
aF0.457495710997814
aF0.5
aF0.5
aF0.5
aF0.5
aF0.56568542494923801
aF0.56568542494923801
aF0.42426406871192851
aF0.42426406871192851
aF0.3481553119113957
aF0.3481553119113957
aF0.69631062382279141
aF0.5222329678670935
aF0.3481553119113957
aF0.3481553119113957
aF0.5222329678670935
aF0.69631062382279141
aF0.46816458878452227
aF0.46816458878452227
aF0.46816458878452227
aF0.58520573598065284
aF0.46816458878452227
aF0.46816458878452227
aF0.46816458878452227
aF0.58520573598065284
aF0.5
aF0.5
aF0.5
aF0.5
aF0.5
aF0.5
aF0.5
aF0.5
aF0.61558088670801758
aF0.45499456843636082
aF0.45499456843636082
aF0.45499456843636082
aF0.47286624374346037
aF0.63048832499128049
aF0.47286624374346037
aF0.39405520311955033
aF0.42712109808862458
aF0.52203689766387451
aF0.52203689766387451
aF0.52203689766387451
aF0.80295506854696608
aF0.34412360080584259
aF0.34412360080584259
aF0.34412360080584259
aF0.45584230583855179
aF0.68376345875782774
aF0.45584230583855179
aF0.34188172937891387
aF0.43643578047198478
aF0.43643578047198478
aF0.6546536707079772
aF0.43643578047198478
aF0.5
aF0.5
aF0.5
aF0.5
aF0.5
aF0.5
aF0.5
aF0.5
aF0.35856858280031806
aF0.47809144373375745
aF0.35856858280031806
aF0.71713716560063612
aF0.48189987357505998
aF0.48189987357505998
aF0.55074271265721142
aF0.48189987357505998
aF0.43355498476205995
aF0.52026598171447191
aF0.52026598171447191
aF0.52026598171447191
aF0.47963209687927216
aF0.54815096786202533
aF0.54815096786202533
aF0.411113225896519
aF0.5388159060803247
aF0.35921060405354982
aF0.5388159060803247
aF0.5388159060803247
aF0.64643778602810009
aF0.39178047638066676
aF0.50931461929486677
aF0.41136950019970009
aF0.42058923768827677
aF0.48067341450088774
aF0.48067341450088774
aF0.60084176812610968
aF0.26436307295072103
aF0.41123144681223261
aF0.61684717021834901
aF0.61684717021834901
aF0.27937211830783126
aF0.34921514788478908
aF0.55874423661566253
aF0.69843029576957816
aF0.39223227027636809
aF0.58834840541455213
aF0.39223227027636809
aF0.58834840541455213
aF0.55661230184809585
aF0.6184581131645509
aF0.37107486789873056
aF0.41230540877636723
aF0.50329619952129112
aF0.50329619952129112
aF0.45296657956916203
aF0.53684927948937722
aF0.5430364606919974
aF0.5430364606919974
aF0.43442916855359798
aF0.47063159926639775
aF0.59628479399994394
aF0.44721359549995793
aF0.59628479399994394
aF0.29814239699997197
aF0.5
aF0.5
aF0.5
aF0.5
aF0.5
aF0.5
aF0.5
aF0.5
aF0.5
aF0.5
aF0.5
aF0.5
aF0.6546536707079772
aF0.43643578047198478
aF0.43643578047198478
aF0.43643578047198478
aF0.5
aF0.5
aF0.5
aF0.5
aF0.5
aF0.5
aF0.5
aF0.5
aF0.457495710997814
aF0.457495710997814
aF0.457495710997814
aF0.60999428133041866
aF0.58834840541455213
aF0.39223227027636809
aF0.39223227027636809
aF0.58834840541455213
aF0.32444284226152509
aF0.48666426339228763
aF0.48666426339228763
aF0.64888568452305018
aF0.5
aF0.5
aF0.5
aF0.5
aF0.6059634837328064
aF0.4894320445534206
aF0.46612575671754342
aF0.41951318104578905
aF0.43079324749337655
aF0.43079324749337655
aF0.66577138248976375
aF0.43079324749337655
aF0.5222329678670935
aF0.3481553119113957
aF0.3481553119113957
aF0.69631062382279141
aF0.40096346988231274
aF0.68163789879993164
aF0.32077077590585018
aF0.52125251084700652
aF0.46816458878452227
aF0.58520573598065284
aF0.46816458878452227
aF0.46816458878452227
aF0.46816458878452227
aF0.46816458878452227
aF0.46816458878452227
aF0.58520573598065284
aF0.56961508360712354
aF0.320408484529007
aF0.49841319815623308
aF0.56961508360712354
aF0.62861855709371217
aF0.44901325506693729
aF0.44901325506693729
aF0.44901325506693729
aF0.33786868919974294
aF0.47301616487964016
aF0.60816364055953731
aF0.54058990271958873
aF0.5388159060803247
aF0.5388159060803247
aF0.5388159060803247
aF0.35921060405354982
aF0.42070316191167123
aF0.58898442667633977
aF0.54691411048517258
aF0.42070316191167123
aF0.57906857736163719
aF0.38604571824109146
aF0.42465029006520061
aF0.57906857736163719
aF0.4923659639173309
aF0.61545745489666359
aF0.4923659639173309
aF0.3692744729379982
aF0.32769276820761623
aF0.32769276820761623
aF0.73730872846713646
aF0.49153915231142431
aF0.41602514716892186
aF0.41602514716892186
aF0.69337524528153649
aF0.41602514716892186
aF0.42426406871192851
aF0.56568542494923801
aF0.42426406871192851
aF0.56568542494923801
aF0.5644325210301584
aF0.5644325210301584
aF0.37628834735343891
aF0.47036043419179863
aF0.58520573598065284
aF0.46816458878452227
aF0.46816458878452227
aF0.46816458878452227
aF0.58658846008541321
aF0.65991201759608986
aF0.36661778755338326
aF0.29329423004270661
aF0.46156633137705089
aF0.39562828403747219
aF0.59344242605620834
aF0.52750437871662958
aF0.27500954910846342
aF0.45834924851410569
aF0.64168894791974795
aF0.55001909821692685
aF0.58834840541455213
aF0.39223227027636809
aF0.39223227027636809
aF0.58834840541455213
aF0.48189987357505998
aF0.48189987357505998
aF0.55074271265721142
aF0.48189987357505998
aF0.39223227027636809
aF0.58834840541455213
aF0.39223227027636809
aF0.58834840541455213
aF0.5388159060803247
aF0.5388159060803247
aF0.35921060405354982
aF0.5388159060803247
aF0.31622776601683794
aF0.63245553203367588
aF0.63245553203367588
aF0.31622776601683794
aF0.457495710997814
aF0.60999428133041866
aF0.457495710997814
aF0.457495710997814
aF0.43643578047198478
aF0.43643578047198478
aF0.6546536707079772
aF0.43643578047198478
aF0.5
aF0.5
aF0.5
aF0.5
aF0.5
aF0.5
aF0.5
aF0.5
aF0.46816458878452227
aF0.46816458878452227
aF0.58520573598065284
aF0.46816458878452227
aF0.5
aF0.5
aF0.5
aF0.5
aF0.5
aF0.5
aF0.5
aF0.5
aF0.55215763037423271
aF0.55215763037423271
aF0.44172610429938614
aF0.44172610429938614
aF0.46056618647183828
aF0.39477101697586137
aF0.72374686445574588
aF0.32897584747988451
aF0.5
aF0.5
aF0.5
aF0.5
aF0.51639777949432231
aF0.43033148291193524
aF0.43033148291193524
aF0.60246407607670927
aF0.36563621206356534
aF0.29250896965085227
aF0.80439966653984374
aF0.36563621206356534
aF0.66436383882991978
aF0.33218191941495989
aF0.58131835897617978
aF0.33218191941495989
aF0.5388159060803247
aF0.35921060405354982
aF0.5388159060803247
aF0.5388159060803247
aF0.40894436648589017
aF0.70104748540438322
aF0.46736499026958878
aF0.35052374270219161
aF0.43643578047198478
aF0.43643578047198478
aF0.6546536707079772
aF0.43643578047198478
aF0.63869555449481941
aF0.47902166587111455
aF0.42579703632987959
aF0.42579703632987959
aF0.62861855709371217
aF0.44901325506693729
aF0.44901325506693729
aF0.44901325506693729
aF0.42759305524706825
aF0.42759305524706825
aF0.6719319439596787
aF0.42759305524706825
aF0.5
aF0.5
aF0.5
aF0.5
aF0.42759305524706825
aF0.42759305524706825
aF0.42759305524706825
aF0.6719319439596787
aF0.5
aF0.5
aF0.5
aF0.5
aF0.41602514716892186
aF0.41602514716892186
aF0.41602514716892186
aF0.69337524528153649
aF0.56949479745149945
aF0.47457899787624952
aF0.47457899787624952
aF0.47457899787624952
aF0.56949479745149945
aF0.47457899787624952
aF0.47457899787624952
aF0.47457899787624952
aF0.51639777949432231
aF0.60246407607670927
aF0.43033148291193524
aF0.43033148291193524
aF0.5
aF0.5
aF0.5
aF0.5
aF0.64888568452305018
aF0.32444284226152509
aF0.48666426339228763
aF0.48666426339228763
aF0.38837866680189281
aF0.6041445928029443
aF0.34522548160168248
aF0.6041445928029443
aF0.46647154448400979
aF0.54421680189801147
aF0.51830171609334419
aF0.46647154448400979
aF0.5
aF0.5
aF0.5
aF0.5
aF0.43643578047198478
aF0.43643578047198478
aF0.6546536707079772
aF0.43643578047198478
aF0.7745966692414834
aF0.5163977794943222
aF0.2581988897471611
aF0.2581988897471611
aF0.47565149415449404
aF0.52321664356994346
aF0.52321664356994346
aF0.47565149415449404
aF0.44901325506693729
aF0.44901325506693729
aF0.62861855709371217
aF0.44901325506693729
aF0.48949020986880254
aF0.53028106069120273
aF0.48949020986880254
aF0.48949020986880254
aF0.81660769157407664
aF0.2799797799682549
aF0.41996966995238233
aF0.2799797799682549
aF0.57710985682476124
aF0.490543378301047
aF0.46168788545980899
aF0.46168788545980899
aF0.59555000038255823
aF0.49629166698546512
aF0.44666250028691867
aF0.44666250028691867
aF0.43643578047198478
aF0.6546536707079772
aF0.43643578047198478
aF0.43643578047198478
aF0.67372153685321523
aF0.33686076842660762
aF0.42107596053325946
aF0.50529115263991142
aF0.39223227027636809
aF0.39223227027636809
aF0.58834840541455213
aF0.58834840541455213
aF0.17149858514250882
aF0.8574929257125441
aF0.34299717028501764
aF0.34299717028501764
aF0.42579703632987959
aF0.47902166587111455
aF0.42579703632987959
aF0.63869555449481941
aF0.43643578047198478
aF0.43643578047198478
aF0.43643578047198478
aF0.6546536707079772
aF0.58520573598065284
aF0.46816458878452227
aF0.46816458878452227
aF0.46816458878452227
aF0.46525042788159493
aF0.46525042788159493
aF0.46525042788159493
aF0.59213690821293896
aF0.6546536707079772
aF0.43643578047198478
aF0.43643578047198478
aF0.43643578047198478
aF0.5
aF0.5
aF0.5
aF0.5
aF0.47011652789001313
aF0.47011652789001313
aF0.60070445230390568
aF0.44399894300723458
aF0.56568542494923801
aF0.42426406871192851
aF0.56568542494923801
aF0.42426406871192851
aF0.27735009811261457
aF0.55470019622522915
aF0.55470019622522915
aF0.55470019622522915
aF0.47172817652486326
aF0.47172817652486326
aF0.47172817652486326
aF0.57655666019705509
aF0.5388159060803247
aF0.35921060405354982
aF0.5388159060803247
aF0.5388159060803247
aF0.5119921115897168
aF0.56888012398857424
aF0.45510409919085942
aF0.45510409919085942
aF0.5112133535741904
aF0.5112133535741904
aF0.46473941234017307
aF0.5112133535741904
aF0.5
aF0.5
aF0.5
aF0.5
aF0.4595037486404901
aF0.5743796858006126
aF0.49779572769386432
aF0.4595037486404901
aF0.39785858955969788
aF0.49258682516914976
aF0.28418470682835567
aF0.71993459063183429
aF0.43643578047198478
aF0.6546536707079772
aF0.43643578047198478
aF0.43643578047198478
aF0.2879263002994778
aF0.50387102552408625
aF0.5758526005989556
aF0.5758526005989556
aF0.43643578047198478
aF0.43643578047198478
aF0.6546536707079772
aF0.43643578047198478
aF0.44539933408304444
aF0.44539933408304444
aF0.63628476297577774
aF0.44539933408304444
aF0.457495710997814
aF0.457495710997814
aF0.457495710997814
aF0.60999428133041866
aF0.59628479399994394
aF0.44721359549995793
aF0.29814239699997197
aF0.59628479399994394
aF0.44172610429938614
aF0.55215763037423271
aF0.44172610429938614
aF0.55215763037423271
aF0.5
aF0.5
aF0.5
aF0.5
aF0.45267873021259264
aF0.54321447625511121
aF0.45267873021259264
aF0.54321447625511121
aF0.47885213068057331
aF0.47885213068057331
aF0.47885213068057331
aF0.55866081912733556
aF0.5
aF0.5
aF0.5
aF0.5
aF0.56568542494923801
aF0.42426406871192851
aF0.56568542494923801
aF0.42426406871192851
aF0.59373225077597969
aF0.42409446483998547
aF0.59373225077597969
aF0.33927557187198837
aF0.5
aF0.5
aF0.5
aF0.5
aF0.36363636363636365
aF0.45454545454545453
aF0.72727272727272729
aF0.36363636363636365
aF0.38413666267326801
aF0.38413666267326801
aF0.59366575140414146
aF0.59366575140414146
aF0.60633906259083248
aF0.36380343755449945
aF0.60633906259083248
aF0.36380343755449945
aF0.41602514716892186
aF0.41602514716892186
aF0.69337524528153649
aF0.41602514716892186
aF0.63869555449481941
aF0.42579703632987959
aF0.42579703632987959
aF0.47902166587111455
aF0.62861855709371217
aF0.44901325506693729
aF0.44901325506693729
aF0.44901325506693729
aF0.43643578047198478
aF0.6546536707079772
aF0.43643578047198478
aF0.43643578047198478
aF0.45584230583855179
aF0.68376345875782762
aF0.45584230583855179
aF0.34188172937891381
aF0.43643578047198478
aF0.6546536707079772
aF0.43643578047198478
aF0.43643578047198478
aF0.5
aF0.5
aF0.5
aF0.5
aF0.5
aF0.5
aF0.5
aF0.5
aF0.50697940041958234
aF0.44360697536713456
aF0.38023455031468678
aF0.63372425052447789
aF0.43643578047198478
aF0.43643578047198478
aF0.43643578047198478
aF0.6546536707079772
aF0.60633906259083248
aF0.60633906259083248
aF0.36380343755449945
aF0.36380343755449945
aF0.47036043419179863
aF0.5644325210301584
aF0.5644325210301584
aF0.37628834735343891
aF0.5
aF0.5
aF0.5
aF0.5
aF0.5
aF0.5
aF0.5
aF0.5
aF0.47457899787624952
aF0.47457899787624952
aF0.47457899787624952
aF0.56949479745149945
aF0.39223227027636809
aF0.58834840541455213
aF0.39223227027636809
aF0.58834840541455213
aF0.5
aF0.5
aF0.5
aF0.5
aF0.50467243889732183
aF0.65826839856172414
aF0.39496103913703445
aF0.39496103913703445
aF0.47691048323826596
aF0.47691048323826596
aF0.56362148019067793
aF0.47691048323826596
aF0.46358632497276531
aF0.59603956067926966
aF0.46358632497276531
aF0.46358632497276531
aF0.42426406871192851
aF0.56568542494923801
aF0.56568542494923801
aF0.42426406871192851
aF0.52075564392329554
aF0.6509445549041194
aF0.39056673294247163
aF0.39056673294247163
aF0.5
aF0.5
aF0.5
aF0.5
aF0.29814239699997197
aF0.44721359549995793
aF0.59628479399994394
aF0.59628479399994394
aF0.42759305524706825
aF0.42759305524706825
aF0.6719319439596787
aF0.42759305524706825
aF0.5
aF0.5
aF0.5
aF0.5
aF0.46358632497276531
aF0.59603956067926966
aF0.46358632497276531
aF0.46358632497276531
aF0.53049927718019041
aF0.37892805512870747
aF0.65680862888975955
aF0.37892805512870747
aF0.63012603781260434
aF0.4900980294098034
aF0.4900980294098034
aF0.35007002100700241
aF0.5
aF0.5
aF0.5
aF0.5
aF0.54470477940192219
aF0.48418202613504197
aF0.48418202613504197
aF0.48418202613504197
aF0.59213690821293896
aF0.46525042788159493
aF0.46525042788159493
aF0.46525042788159493
aF0.47457899787624952
aF0.56949479745149945
aF0.47457899787624952
aF0.47457899787624952
aF0.5
aF0.5
aF0.5
aF0.5
aF0.5
aF0.5
aF0.5
aF0.5
aF0.39378076532410827
aF0.73130713560191563
aF0.39378076532410827
aF0.39378076532410827
aF0.77151674981045948
aF0.30860669992418382
aF0.46291004988627571
aF0.30860669992418382
aF0.54321447625511121
aF0.54321447625511121
aF0.45267873021259264
aF0.45267873021259264
aF0.57655666019705509
aF0.47172817652486326
aF0.47172817652486326
aF0.47172817652486326
aF0.49913419848462182
aF0.45753968194423666
aF0.49913419848462182
aF0.54072871502500697
aF0.46816458878452227
aF0.46816458878452227
aF0.58520573598065284
aF0.46816458878452227
aF0.51365713098181465
aF0.51365713098181465
aF0.45658411642827967
aF0.51365713098181465
aF0.5
aF0.5
aF0.5
aF0.5
aF0.3779644730092272
aF0.3779644730092272
aF0.7559289460184544
aF0.3779644730092272
aF0.26891705818112577
aF0.30253169045376649
aF0.87398043908865863
aF0.26891705818112577
aF0.46816458878452227
aF0.46816458878452227
aF0.46816458878452227
aF0.58520573598065284
aF0.60999428133041866
aF0.457495710997814
aF0.457495710997814
aF0.457495710997814
aF0.4951707296531766
aF0.4951707296531766
aF0.51421575771676042
aF0.4951707296531766
aF0.457495710997814
aF0.457495710997814
aF0.457495710997814
aF0.60999428133041866
aF0.5
aF0.5
aF0.5
aF0.5
aF0.5
aF0.5
aF0.5
aF0.5
aF0.5
aF0.5
aF0.5
aF0.5
aF0.58834840541455213
aF0.39223227027636809
aF0.58834840541455213
aF0.39223227027636809
aF0.5
aF0.5
aF0.5
aF0.5
aF0.36980013081681939
aF0.64715022892943397
aF0.55470019622522904
aF0.36980013081681939
aF0.40360367639778749
aF0.67267279399631241
aF0.47087095579741872
aF0.40360367639778749
aF0.46358632497276531
aF0.46358632497276531
aF0.46358632497276531
aF0.59603956067926966
aF0.59016710652347526
aF0.55082263275524357
aF0.35410026391408517
aF0.47213368521878024
aF0.5
aF0.5
aF0.5
aF0.5
aF0.5
aF0.5
aF0.5
aF0.5
aF0.6404640308067906
aF0.44339817517393193
aF0.44339817517393193
aF0.44339817517393193
aF0.5
aF0.5
aF0.5
aF0.5
aF0.48797638295718176
aF0.48797638295718176
aF0.53445032419119909
aF0.48797638295718176
aF0.58520573598065284
aF0.46816458878452227
aF0.46816458878452227
aF0.46816458878452227
aF0.46816458878452227
aF0.46816458878452227
aF0.58520573598065284
aF0.46816458878452227
aF0.60999428133041866
aF0.457495710997814
aF0.457495710997814
aF0.457495710997814
aF0.56949479745149945
aF0.47457899787624952
aF0.47457899787624952
aF0.47457899787624952
aF0.29814239699997197
aF0.59628479399994394
aF0.44721359549995793
aF0.59628479399994394
aF0.48960832515056113
aF0.45194614629282565
aF0.52727050400829656
aF0.52727050400829656
aF0.457495710997814
aF0.457495710997814
aF0.457495710997814
aF0.60999428133041866
aF0.5
aF0.5
aF0.5
aF0.5
aF0.5
aF0.5
aF0.5
aF0.5
aF0.5
aF0.5
aF0.5
aF0.5
aF0.42640143271122088
aF0.49746833816309105
aF0.49746833816309105
aF0.56853524361496122
aF0.67855114374397685
aF0.42409446483998547
aF0.42409446483998547
aF0.42409446483998547
aF0.54815096786202533
aF0.47963209687927216
aF0.54815096786202533
aF0.411113225896519
aF0.40360367639778749
aF0.47087095579741872
aF0.67267279399631241
aF0.40360367639778749
aF0.44901325506693729
aF0.44901325506693729
aF0.44901325506693729
aF0.62861855709371217
aF0.457495710997814
aF0.457495710997814
aF0.60999428133041866
aF0.457495710997814
aF0.7559289460184544
aF0.3779644730092272
aF0.3779644730092272
aF0.3779644730092272
aF0.5644325210301584
aF0.47036043419179863
aF0.5644325210301584
aF0.37628834735343891
aF0.58834840541455213
aF0.39223227027636809
aF0.39223227027636809
aF0.58834840541455213
aF0.457495710997814
aF0.457495710997814
aF0.60999428133041866
aF0.457495710997814
aF0.56568542494923801
aF0.42426406871192851
aF0.56568542494923801
aF0.42426406871192851
aF0.5
aF0.5
aF0.5
aF0.5
aF0.76200076200114308
aF0.1270001270001905
aF0.38100038100057154
aF0.50800050800076202
aF0.69566559299993447
aF0.44721359549995793
aF0.39752319599996255
aF0.39752319599996255
aF0.5388159060803247
aF0.5388159060803247
aF0.5388159060803247
aF0.35921060405354982
aF0.56568542494923801
aF0.42426406871192851
aF0.42426406871192851
aF0.56568542494923801
aF0.60999428133041866
aF0.457495710997814
aF0.457495710997814
aF0.457495710997814
aF0.3779644730092272
aF0.3779644730092272
aF0.7559289460184544
aF0.3779644730092272
aF0.41099746826339323
aF0.57539645556875052
aF0.57539645556875052
aF0.41099746826339323
aF0.5082556106787729
aF0.47437190330018797
aF0.5082556106787729
aF0.5082556106787729
aF0.50571949971242003
aF0.35697847038523772
aF0.71395694077047545
aF0.32723026451980125
aF0.5
aF0.5
aF0.5
aF0.5
aF0.46358632497276531
aF0.46358632497276531
aF0.46358632497276531
aF0.59603956067926966
aF0.457495710997814
aF0.457495710997814
aF0.60999428133041866
aF0.457495710997814
aF0.4923659639173309
aF0.4923659639173309
aF0.3692744729379982
aF0.61545745489666359
aF0.55470019622522915
aF0.55470019622522915
aF0.27735009811261457
aF0.55470019622522915
aF0.58834840541455213
aF0.39223227027636809
aF0.58834840541455213
aF0.39223227027636809
aF0.46816458878452227
aF0.46816458878452227
aF0.46816458878452227
aF0.58520573598065284
aF0.46816458878452227
aF0.58520573598065284
aF0.46816458878452227
aF0.46816458878452227
aF0.4950737714883372
aF0.59408852578600457
aF0.39605901719066977
aF0.4950737714883372
aF0.48666426339228763
aF0.64888568452305018
aF0.48666426339228763
aF0.32444284226152509
aF0.5
aF0.5
aF0.5
aF0.5
aF0.29949263946295768
aF0.45804756623746468
aF0.54613363666774628
aF0.634219707098028
aF0.48949020986880254
aF0.48949020986880254
aF0.48949020986880254
aF0.53028106069120273
aF0.43643578047198478
aF0.43643578047198478
aF0.6546536707079772
aF0.43643578047198478
aF0.457495710997814
aF0.457495710997814
aF0.457495710997814
aF0.60999428133041866
aF0.57519070083928958
aF0.43139302562946719
aF0.50329186323437836
aF0.47932558403274128
aF0.5
aF0.5
aF0.5
aF0.5
aF0.43643578047198478
aF0.6546536707079772
aF0.43643578047198478
aF0.43643578047198478
aF0.57735026918962573
aF0.46188021535170054
aF0.34641016151377541
aF0.57735026918962573
aF0.43643578047198478
aF0.43643578047198478
aF0.6546536707079772
aF0.43643578047198478
aF0.47684189230312013
aF0.408721621974103
aF0.71526283845468031
aF0.30654121648057725
aF0.5
aF0.5
aF0.5
aF0.5
aF0.43643578047198478
aF0.43643578047198478
aF0.43643578047198478
aF0.6546536707079772
aF0.28553224409929984
aF0.28553224409929984
aF0.32122377461171236
aF0.85659673229789957
aF0.42426406871192851
aF0.56568542494923801
aF0.56568542494923801
aF0.42426406871192851
aF0.5
aF0.5
aF0.5
aF0.5
aF0.56568542494923801
aF0.42426406871192851
aF0.42426406871192851
aF0.56568542494923801
aF0.5
aF0.5
aF0.5
aF0.5
aF0.42426406871192851
aF0.42426406871192851
aF0.56568542494923801
aF0.56568542494923801
aF0.69006555934235425
aF0.34503277967117713
aF0.41403933560541256
aF0.48304589153964794
aF0.64888568452305018
aF0.48666426339228763
aF0.32444284226152509
aF0.48666426339228763
aF0.30304576336566325
aF0.30304576336566325
aF0.80812203564176854
aF0.40406101782088427
aF0.43643578047198478
aF0.43643578047198478
aF0.43643578047198478
aF0.6546536707079772
aF0.5
aF0.5
aF0.5
aF0.5
aF0.37904902178945171
aF0.6064784348631227
aF0.45485882614734202
aF0.53066863050523239
aF0.60370062381498391
aF0.50308385317915327
aF0.46954492963387634
aF0.40246708254332264
aF0.43033148291193524
aF0.51639777949432231
aF0.43033148291193524
aF0.60246407607670927
aF0.5
aF0.5
aF0.5
aF0.5
aF0.55866081912733556
aF0.47885213068057331
aF0.47885213068057331
aF0.47885213068057331
aF0.5
aF0.5
aF0.5
aF0.5
aF0.5
aF0.5
aF0.5
aF0.5
aF0.5
aF0.5
aF0.5
aF0.5
aF0.48189987357505998
aF0.48189987357505998
aF0.55074271265721142
aF0.48189987357505998
aF0.73901434950519318
aF0.388954920792207
aF0.388954920792207
aF0.388954920792207
aF0.5
aF0.5
aF0.5
aF0.5
aF0.43643578047198478
aF0.43643578047198478
aF0.43643578047198478
aF0.6546536707079772
aF0.5
aF0.5
aF0.5
aF0.5
aF0.5
aF0.5
aF0.5
aF0.5
aF0.5
aF0.5
aF0.5
aF0.5
aF0.46017899330842221
aF0.53687549219315922
aF0.53687549219315922
aF0.46017899330842221
aF0.457495710997814
aF0.60999428133041866
aF0.457495710997814
aF0.457495710997814
aF0.43502841291666561
aF0.40156468884615282
aF0.53541958512820365
aF0.60234703326922923
aF0.43580096445528327
aF0.49805824509175228
aF0.5603155257282213
aF0.49805824509175228
aF0.44901325506693729
aF0.62861855709371217
aF0.44901325506693729
aF0.44901325506693729
aF0.341344644923746
aF0.35841187716993334
aF0.61442036086274288
aF0.61442036086274288
aF0.43643578047198478
aF0.6546536707079772
aF0.43643578047198478
aF0.43643578047198478
aF0.63245553203367588
aF0.31622776601683794
aF0.63245553203367588
aF0.31622776601683794
aF0.42426406871192851
aF0.56568542494923801
aF0.42426406871192851
aF0.56568542494923801
aF0.457495710997814
aF0.60999428133041866
aF0.457495710997814
aF0.457495710997814
aF0.5
aF0.5
aF0.5
aF0.5
aF0.5388159060803247
aF0.5388159060803247
aF0.5388159060803247
aF0.35921060405354982
aF0.457495710997814
aF0.457495710997814
aF0.60999428133041866
aF0.457495710997814
aF0.43355498476205995
aF0.52026598171447191
aF0.52026598171447191
aF0.52026598171447191
aF0.57207755354735534
aF0.28603877677367767
aF0.66742381247191462
aF0.38138503569823695
aF0.46358632497276531
aF0.59603956067926966
aF0.46358632497276531
aF0.46358632497276531
aF0.59480300412692233
aF0.59480300412692233
aF0.38237335979587861
aF0.38237335979587861
aF0.43643578047198478
aF0.43643578047198478
aF0.6546536707079772
aF0.43643578047198478
aF0.58834840541455213
aF0.39223227027636809
aF0.39223227027636809
aF0.58834840541455213
aF0.3481553119113957
aF0.5222329678670935
aF0.69631062382279141
aF0.3481553119113957
aF0.43643578047198478
aF0.6546536707079772
aF0.43643578047198478
aF0.43643578047198478
aF0.5714285714285714
aF0.2857142857142857
aF0.2857142857142857
aF0.7142857142857143
aF0.63538550210778988
aF0.43682753269910551
aF0.46330192862026343
aF0.43682753269910551
aF0.47809144373375745
aF0.71713716560063612
aF0.35856858280031806
aF0.35856858280031806
aF0.52623481158421759
aF0.26311740579210879
aF0.52623481158421759
aF0.61394061351492046
aF0.39223227027636803
aF0.58834840541455202
aF0.58834840541455202
aF0.39223227027636803
aF0.43246144425065081
aF0.43246144425065081
aF0.49424165057217234
aF0.61780206321521547
aF0.44501236673450423
aF0.44501236673450423
aF0.48546803643764097
aF0.60683504554705114
aF0.43979949713354244
aF0.48377944684689672
aF0.43979949713354244
aF0.6157192959869594
aF0.47424367491514957
aF0.47424367491514957
aF0.60358285898291764
aF0.43113061355922688
aF0.49187881037574982
aF0.45795613379811184
aF0.25442007433228436
aF0.6954148698415773
aF0.457495710997814
aF0.457495710997814
aF0.60999428133041866
aF0.457495710997814
aF0.60999428133041866
aF0.457495710997814
aF0.457495710997814
aF0.457495710997814
aF0.5
aF0.5
aF0.5
aF0.5
aF0.58520573598065284
aF0.46816458878452227
aF0.46816458878452227
aF0.46816458878452227
aF0.44690335363431516
aF0.44690335363431516
aF0.44690335363431516
aF0.63311308431527991
aF0.5
aF0.5
aF0.5
aF0.5
aF0.457495710997814
aF0.457495710997814
aF0.457495710997814
aF0.60999428133041866
aF0.47457899787624952
aF0.56949479745149945
aF0.47457899787624952
aF0.47457899787624952
aF0.45267873021259264
aF0.54321447625511121
aF0.45267873021259264
aF0.54321447625511121
aF0.42579703632987959
aF0.63869555449481941
aF0.42579703632987959
aF0.47902166587111455
aF0.5
aF0.5
aF0.5
aF0.5
aF0.54021612968646049
aF0.54021612968646049
aF0.32012807685123584
aF0.56022413448966268
aF0.47885213068057331
aF0.47885213068057331
aF0.55866081912733556
aF0.47885213068057331
aF0.38177085778546666
aF0.57265628667820001
aF0.57265628667820001
aF0.44539933408304444
aF0.5
aF0.5
aF0.5
aF0.5
aF0.48418202613504197
aF0.48418202613504197
aF0.54470477940192219
aF0.48418202613504197
aF0.5
aF0.5
aF0.5
aF0.5
aF0.46816458878452227
aF0.46816458878452227
aF0.58520573598065284
aF0.46816458878452227
aF0.5
aF0.5
aF0.5
aF0.5
aF0.51465023546566535
aF0.58817169767504618
aF0.44112877325628463
aF0.44112877325628463
aF0.5388159060803247
aF0.5388159060803247
aF0.5388159060803247
aF0.35921060405354982
aF0.46175709653961017
aF0.46175709653961017
aF0.60028422550149318
aF0.46175709653961017
aF0.6546536707079772
aF0.43643578047198478
aF0.43643578047198478
aF0.43643578047198478
aF0.5
aF0.5
aF0.5
aF0.5
aF0.46816458878452227
aF0.46816458878452227
aF0.46816458878452227
aF0.58520573598065284
aF0.457495710997814
aF0.457495710997814
aF0.457495710997814
aF0.60999428133041866
aF0.5
aF0.5
aF0.5
aF0.5
aF0.3779644730092272
aF0.3779644730092272
aF0.7559289460184544
aF0.3779644730092272
aF0.5
aF0.5
aF0.5
aF0.5
aF0.457495710997814
aF0.60999428133041866
aF0.457495710997814
aF0.457495710997814
aF0.52026598171447191
aF0.52026598171447191
aF0.43355498476205995
aF0.52026598171447191
aF0.39223227027636809
aF0.58834840541455213
aF0.39223227027636809
aF0.58834840541455213
aF0.43643578047198478
aF0.43643578047198478
aF0.43643578047198478
aF0.6546536707079772
aF0.43495883620084003
aF0.31068488300060004
aF0.80778069580156009
aF0.24854790640048002
aF0.78496372262078529
aF0.32112152289032125
aF0.3746417767053748
aF0.3746417767053748
aF0.60920769908017147
aF0.40613846605344767
aF0.30460384954008574
aF0.60920769908017147
aF0.41380294430118397
aF0.49656353316142077
aF0.49656353316142077
aF0.57932412202165751
aF0.35533452725935072
aF0.78173595997057166
aF0.42640143271122088
aF0.28426762180748061
aF0.60999428133041866
aF0.457495710997814
aF0.457495710997814
aF0.457495710997814
aF0.48595432244043502
aF0.48595432244043502
aF0.53994924715603887
aF0.48595432244043502
aF0.5
aF0.5
aF0.5
aF0.5
aF0.5
aF0.5
aF0.5
aF0.5
aF0.46358632497276531
aF0.46358632497276531
aF0.59603956067926966
aF0.46358632497276531
aF0.43386091563731233
aF0.50617106824353109
aF0.57848122084974984
aF0.47001599194042171
aF0.5
aF0.5
aF0.5
aF0.5
aF0.51261459463005654
aF0.34174306308670438
aF0.51261459463005654
aF0.59805036040173265
aF0.34641016151377541
aF0.57735026918962573
aF0.57735026918962573
aF0.46188021535170054
aF0.39605901719066977
aF0.4950737714883372
aF0.4950737714883372
aF0.59408852578600457
aF0.74499231548755007
aF0.34921514788478913
aF0.32593413802580318
aF0.46562019717971881
aF0.49779248369997897
aF0.56416481485997616
aF0.49779248369997897
aF0.43142015253998178
aF0.55384877562171131
aF0.49846389805954017
aF0.49846389805954017
aF0.44307902049736902
aF0.44901325506693729
aF0.44901325506693729
aF0.44901325506693729
aF0.62861855709371217
aF0.457495710997814
aF0.457495710997814
aF0.60999428133041866
aF0.457495710997814
aF0.5
aF0.5
aF0.5
aF0.5
aF0.6546536707079772
aF0.43643578047198478
aF0.43643578047198478
aF0.43643578047198478
aF0.5
aF0.5
aF0.5
aF0.5
aF0.64715022892943397
aF0.36980013081681939
aF0.55470019622522904
aF0.36980013081681939
aF0.57539645556875052
aF0.41099746826339323
aF0.41099746826339323
aF0.57539645556875052
aF0.47036043419179863
aF0.5644325210301584
aF0.37628834735343891
aF0.5644325210301584
aF0.43643578047198478
aF0.6546536707079772
aF0.43643578047198478
aF0.43643578047198478
aF0.49488913327864459
aF0.43666688230468648
aF0.61133363522656103
aF0.43666688230468648
aF0.5
aF0.5
aF0.5
aF0.5
aF0.5
aF0.5
aF0.5
aF0.5
aF0.46358632497276531
aF0.46358632497276531
aF0.59603956067926966
aF0.46358632497276531
aF0.30065841120113157
aF0.4509876168016973
aF0.75164602800282887
aF0.37582301400141443
aF0.46816458878452227
aF0.58520573598065284
aF0.46816458878452227
aF0.46816458878452227
aF0.31822291367029198
aF0.71600155575815705
aF0.47733437050543803
aF0.39777864208786501
aF0.46007075409880827
aF0.52141352131198271
aF0.46007075409880827
aF0.55208490491856999
aF0.47457899787624952
aF0.56949479745149945
aF0.47457899787624952
aF0.47457899787624952
aF0.42426406871192851
aF0.56568542494923801
aF0.56568542494923801
aF0.42426406871192851
aF0.62133644769419727
aF0.31066822384709863
aF0.36244626115494843
aF0.62133644769419727
aF0.5836558965756079
aF0.4971883563421845
aF0.4539545862254728
aF0.4539545862254728
aF0.6546536707079772
aF0.43643578047198478
aF0.43643578047198478
aF0.43643578047198478
aF0.5
aF0.5
aF0.5
aF0.5
aF0.55470019622522915
aF0.27735009811261457
aF0.55470019622522915
aF0.55470019622522915
aF0.62861855709371217
aF0.44901325506693729
aF0.44901325506693729
aF0.44901325506693729
aF0.44112877325628463
aF0.51465023546566535
aF0.58817169767504618
aF0.44112877325628463
aF0.457495710997814
aF0.60999428133041866
aF0.457495710997814
aF0.457495710997814
aF0.59628479399994394
aF0.29814239699997197
aF0.59628479399994394
aF0.44721359549995793
aF0.4147806778921701
aF0.62217101683825515
aF0.4147806778921701
aF0.51847584736521268
aF0.46169025843831929
aF0.35909242322980384
aF0.66688592885535014
aF0.46169025843831929
aF0.4147806778921701
aF0.4147806778921701
aF0.62217101683825515
aF0.51847584736521268
aF0.41602514716892186
aF0.41602514716892186
aF0.41602514716892186
aF0.69337524528153649
aF0.44690335363431521
aF0.63311308431527991
aF0.44690335363431521
aF0.44690335363431521
aF0.457495710997814
aF0.457495710997814
aF0.60999428133041866
aF0.457495710997814
aF0.46525042788159493
aF0.5498414147691576
aF0.42295493443781357
aF0.5498414147691576
aF0.57539645556875052
aF0.41099746826339323
aF0.41099746826339323
aF0.57539645556875052
aF0.58520573598065284
aF0.46816458878452227
aF0.46816458878452227
aF0.46816458878452227
aF0.6546536707079772
aF0.43643578047198478
aF0.43643578047198478
aF0.43643578047198478
aF0.62222222222222223
aF0.46666666666666667
aF0.44444444444444442
aF0.44444444444444442
aF0.44901325506693729
aF0.44901325506693729
aF0.62861855709371217
aF0.44901325506693729
aF0.46188021535170054
aF0.57735026918962573
aF0.57735026918962573
aF0.34641016151377541
aF0.80295506854696608
aF0.34412360080584259
aF0.34412360080584259
aF0.34412360080584259
aF0.41353196253099489
aF0.69783518677105394
aF0.41353196253099489
aF0.41353196253099489
aF0.63245553203367588
aF0.63245553203367588
aF0.31622776601683794
aF0.31622776601683794
aF0.45999999999999991
aF0.41999999999999998
aF0.65999999999999992
aF0.41999999999999998
aF0.55866081912733545
aF0.47885213068057331
aF0.47885213068057331
aF0.47885213068057331
aF0.52981294282601754
aF0.39735970711951313
aF0.52981294282601754
aF0.52981294282601754
aF0.457495710997814
aF0.457495710997814
aF0.457495710997814
aF0.60999428133041866
aF0.43355498476205995
aF0.52026598171447191
aF0.52026598171447191
aF0.52026598171447191
aF0.5
aF0.5
aF0.5
aF0.5
aF0.5
aF0.5
aF0.5
aF0.5
aF0.47885213068057331
aF0.47885213068057331
aF0.47885213068057331
aF0.55866081912733556
aF0.50361829007659986
aF0.48496576081450349
aF0.36372432061087762
aF0.61553346564917755
aF0.60999428133041866
aF0.457495710997814
aF0.457495710997814
aF0.457495710997814
aF0.5
aF0.5
aF0.5
aF0.5
aF0.58834840541455213
aF0.39223227027636809
aF0.39223227027636809
aF0.58834840541455213
aF0.5388159060803247
aF0.35921060405354982
aF0.5388159060803247
aF0.5388159060803247
aF0.57539645556875052
aF0.41099746826339323
aF0.57539645556875052
aF0.41099746826339323
aF0.44901325506693729
aF0.62861855709371217
aF0.44901325506693729
aF0.44901325506693729
aF0.4147806778921701
aF0.4147806778921701
aF0.62217101683825515
aF0.51847584736521268
aF0.5
aF0.5
aF0.5
aF0.5
aF0.46816458878452227
aF0.46816458878452227
aF0.58520573598065284
aF0.46816458878452227
aF0.5
aF0.5
aF0.5
aF0.5
aF0.43682597793970712
aF0.48050857573367783
aF0.62247701856408266
aF0.43682597793970712
aF0.44112877325628463
aF0.58817169767504618
aF0.51465023546566535
aF0.44112877325628463
aF0.457495710997814
aF0.60999428133041866
aF0.457495710997814
aF0.457495710997814
aF0.53687549219315922
aF0.46017899330842221
aF0.46017899330842221
aF0.53687549219315922
aF0.64372630957871813
aF0.29260286799032642
aF0.64372630957871813
aF0.29260286799032642
aF0.36401260415463205
aF0.59152048175127714
aF0.40951417967396103
aF0.59152048175127714
aF0.27735009811261457
aF0.55470019622522915
aF0.55470019622522915
aF0.55470019622522915
aF0.7559289460184544
aF0.3779644730092272
aF0.3779644730092272
aF0.3779644730092272
aF0.5
aF0.5
aF0.5
aF0.5
aF0.44172610429938614
aF0.55215763037423271
aF0.55215763037423271
aF0.44172610429938614
aF0.39223227027636809
aF0.58834840541455213
aF0.58834840541455213
aF0.39223227027636809
aF0.43643578047198478
aF0.43643578047198478
aF0.6546536707079772
aF0.43643578047198478
aF0.55074271265721142
aF0.48189987357505998
aF0.48189987357505998
aF0.48189987357505998
aF0.5
aF0.5
aF0.5
aF0.5
aF0.3692744729379982
aF0.4923659639173309
aF0.4923659639173309
aF0.61545745489666359
aF0.457495710997814
aF0.457495710997814
aF0.457495710997814
aF0.60999428133041866
aF0.3779644730092272
aF0.3779644730092272
aF0.3779644730092272
aF0.7559289460184544
aF0.43643578047198478
aF0.43643578047198478
aF0.6546536707079772
aF0.43643578047198478
aF0.60999428133041866
aF0.457495710997814
aF0.457495710997814
aF0.457495710997814
aF0.5222329678670935
aF0.3481553119113957
aF0.69631062382279141
aF0.3481553119113957
aF0.58520573598065284
aF0.46816458878452227
aF0.46816458878452227
aF0.46816458878452227
aF0.457495710997814
aF0.457495710997814
aF0.60999428133041866
aF0.457495710997814
aF0.5792844463634923
aF0.40549911245444459
aF0.40549911245444459
aF0.5792844463634923
aF0.43033148291193524
aF0.43033148291193524
aF0.51639777949432231
aF0.60246407607670927
aF0.63245553203367588
aF0.31622776601683794
aF0.31622776601683794
aF0.63245553203367588
aF0.457495710997814
aF0.60999428133041866
aF0.457495710997814
aF0.457495710997814
aF0.46358632497276531
aF0.46358632497276531
aF0.46358632497276531
aF0.59603956067926966
aF0.5
aF0.5
aF0.5
aF0.5
aF0.52124669131568324
aF0.47780946703937632
aF0.47780946703937632
aF0.52124669131568324
aF0.58520573598065284
aF0.46816458878452227
aF0.46816458878452227
aF0.46816458878452227
aF0.43643578047198478
aF0.43643578047198478
aF0.6546536707079772
aF0.43643578047198478
aF0.457495710997814
aF0.60999428133041866
aF0.457495710997814
aF0.457495710997814
aF0.50000000000000011
aF0.5
aF0.5
aF0.5
aF0.42215852683817512
aF0.42215852683817512
aF0.49251828131120429
aF0.63323779025726268
aF0.44666250028691862
aF0.59555000038255812
aF0.49629166698546512
aF0.44666250028691862
aF0.6681835438646867
aF0.42954656391301288
aF0.42954656391301288
aF0.42954656391301288
aF0.41702882811414949
aF0.76455285154260744
aF0.34752402342845795
aF0.34752402342845795
aF0.54470477940192219
aF0.48418202613504197
aF0.48418202613504197
aF0.48418202613504197
aF0.4923659639173309
aF0.3692744729379982
aF0.4923659639173309
aF0.61545745489666359
aF0.55648667491220194
aF0.51011278533618509
aF0.4637388957601683
aF0.4637388957601683
aF0.63245553203367588
aF0.63245553203367588
aF0.31622776601683794
aF0.31622776601683794
aF0.44776673559449515
aF0.54727045461549406
aF0.44776673559449515
aF0.54727045461549406
aF0.43643578047198478
aF0.43643578047198478
aF0.43643578047198478
aF0.6546536707079772
aF0.5
aF0.5
aF0.5
aF0.5
aF0.42426406871192851
aF0.56568542494923801
aF0.56568542494923801
aF0.42426406871192851
aF0.457495710997814
aF0.60999428133041866
aF0.457495710997814
aF0.457495710997814
aF0.5
aF0.5
aF0.5
aF0.5
aF0.5
aF0.5
aF0.5
aF0.5
aF0.43412157106222965
aF0.43412157106222965
aF0.55815630565143803
aF0.55815630565143803
aF0.5
aF0.5
aF0.5
aF0.5
aF0.54554472558998102
aF0.54554472558998102
aF0.54554472558998102
aF0.3273268353539886
aF0.457495710997814
aF0.457495710997814
aF0.457495710997814
aF0.60999428133041866
aF0.41602514716892186
aF0.69337524528153649
aF0.41602514716892186
aF0.41602514716892186
aF0.6546536707079772
aF0.43643578047198478
aF0.43643578047198478
aF0.43643578047198478
aF0.57655666019705509
aF0.47172817652486326
aF0.47172817652486326
aF0.47172817652486326
aF0.58520573598065284
aF0.46816458878452227
aF0.46816458878452227
aF0.46816458878452227
aF0.47457899787624952
aF0.47457899787624952
aF0.47457899787624952
aF0.56949479745149945
aF0.5
aF0.5
aF0.5
aF0.5
aF0.6155870112510925
aF0.30779350562554625
aF0.5129891760425771
aF0.5129891760425771
aF0.46816458878452227
aF0.58520573598065284
aF0.46816458878452227
aF0.46816458878452227
aF0.44901325506693729
aF0.44901325506693729
aF0.62861855709371217
aF0.44901325506693729
aF0.60999428133041866
aF0.457495710997814
aF0.457495710997814
aF0.457495710997814
aF0.6546536707079772
aF0.43643578047198478
aF0.43643578047198478
aF0.43643578047198478
aF0.6546536707079772
aF0.43643578047198478
aF0.43643578047198478
aF0.43643578047198478
aF0.26906911759852498
aF0.33633639699815621
aF0.80720735279557498
aF0.40360367639778749
aF0.5
aF0.5
aF0.5
aF0.5
aF0.5
aF0.5
aF0.5
aF0.5
aF0.56282857736406477
aF0.5195340714129828
aF0.45459231248635995
aF0.45459231248635995
aF0.46358632497276531
aF0.46358632497276531
aF0.59603956067926966
aF0.46358632497276531
aF0.38417490996391618
aF0.60370342994329684
aF0.49393916995360654
aF0.49393916995360654
aF0.48112522432468813
aF0.48112522432468813
aF0.67357531405456339
aF0.28867513459481287
aF0.35856858280031806
aF0.35856858280031806
aF0.47809144373375745
aF0.71713716560063612
aF0.53783411636225142
aF0.47060485181697004
aF0.4033755872716886
aF0.57144874863489215
aF0.36529873131068957
aF0.73059746262137915
aF0.44647622715750945
aF0.36529873131068957
aF0.39223227027636809
aF0.39223227027636809
aF0.58834840541455213
aF0.58834840541455213
aF0.62279915532921837
aF0.46709936649691375
aF0.31139957766460918
aF0.54494926091306606
aF0.457495710997814
aF0.457495710997814
aF0.457495710997814
aF0.60999428133041866
aF0.52981294282601754
aF0.44151078568834795
aF0.44151078568834795
aF0.57396402139485225
aF0.39223227027636809
aF0.39223227027636809
aF0.58834840541455213
aF0.58834840541455213
aF0.42426406871192851
aF0.42426406871192851
aF0.56568542494923801
aF0.56568542494923801
aF0.3481553119113957
aF0.3481553119113957
aF0.5222329678670935
aF0.69631062382279141
aF0.62861855709371217
aF0.44901325506693729
aF0.44901325506693729
aF0.44901325506693729
aF0.4147806778921701
aF0.51847584736521268
aF0.4147806778921701
aF0.62217101683825515
aF0.44666250028691867
aF0.44666250028691867
aF0.59555000038255823
aF0.49629166698546512
aF0.53215208419019144
aF0.53215208419019144
aF0.46563307366641754
aF0.46563307366641754
aF0.40032038451271784
aF0.7205766921228921
aF0.40032038451271784
aF0.40032038451271784
aF0.60633906259083248
aF0.36380343755449945
aF0.36380343755449945
aF0.60633906259083248
aF0.5
aF0.5
aF0.5
aF0.49999999999999989
aF0.5388159060803247
aF0.5388159060803247
aF0.35921060405354982
aF0.5388159060803247
aF0.55215763037423271
aF0.55215763037423271
aF0.44172610429938614
aF0.44172610429938614
aF0.5
aF0.5
aF0.5
aF0.5
aF0.5
aF0.5
aF0.5
aF0.5
aF0.43643578047198478
aF0.43643578047198478
aF0.6546536707079772
aF0.43643578047198478
aF0.34299717028501764
aF0.8574929257125441
aF0.17149858514250882
aF0.34299717028501764
aF0.7559289460184544
aF0.3779644730092272
aF0.3779644730092272
aF0.3779644730092272
aF0.43643578047198478
aF0.6546536707079772
aF0.43643578047198478
aF0.43643578047198478
aF0.35856858280031811
aF0.35856858280031811
aF0.71713716560063623
aF0.47809144373375745
aF0.31622776601683794
aF0.73786478737262184
aF0.4216370213557839
aF0.4216370213557839
aF0.5
aF0.5
aF0.5
aF0.5
aF0.47457899787624952
aF0.47457899787624952
aF0.47457899787624952
aF0.56949479745149945
aF0.62217101683825515
aF0.51847584736521268
aF0.4147806778921701
aF0.4147806778921701
aF0.5
aF0.5
aF0.5
aF0.5
aF0.39223227027636809
aF0.39223227027636809
aF0.58834840541455213
aF0.58834840541455213
aF0.46156633137705089
aF0.52750437871662958
aF0.59344242605620834
aF0.39562828403747219
aF0.44074127735352675
aF0.64416032843976989
aF0.47464445253456727
aF0.40683810217248623
aF0.41142239174273026
aF0.65827582678836838
aF0.43885055119224559
aF0.45256463091700327
aF0.457495710997814
aF0.457495710997814
aF0.60999428133041866
aF0.457495710997814
aF0.40549911245444459
aF0.5792844463634923
aF0.40549911245444459
aF0.5792844463634923
aF0.38851434494290565
aF0.38851434494290565
aF0.48564293117863205
aF0.67990010365008491
aF0.3779644730092272
aF0.3779644730092272
aF0.3779644730092272
aF0.7559289460184544
aF0.457495710997814
aF0.457495710997814
aF0.60999428133041866
aF0.457495710997814
aF0.6546536707079772
aF0.43643578047198478
aF0.43643578047198478
aF0.43643578047198478
aF0.47963209687927216
aF0.411113225896519
aF0.54815096786202533
aF0.54815096786202533
aF0.43643578047198478
aF0.43643578047198478
aF0.6546536707079772
aF0.43643578047198478
aF0.47036043419179863
aF0.5644325210301584
aF0.37628834735343891
aF0.5644325210301584
aF0.5
aF0.5
aF0.5
aF0.5
aF0.62217101683825515
aF0.4147806778921701
aF0.51847584736521268
aF0.4147806778921701
aF0.5
aF0.5
aF0.5
aF0.5
aF0.47457899787624952
aF0.47457899787624952
aF0.47457899787624952
aF0.56949479745149945
aF0.47457899787624952
aF0.47457899787624952
aF0.56949479745149945
aF0.47457899787624952
aF0.58520573598065284
aF0.46816458878452227
aF0.46816458878452227
aF0.46816458878452227
aF0.3481553119113957
aF0.5222329678670935
aF0.69631062382279141
aF0.3481553119113957
aF0.39223227027636809
aF0.58834840541455213
aF0.39223227027636809
aF0.58834840541455213
aF0.34522548160168248
aF0.6041445928029443
aF0.38837866680189281
aF0.6041445928029443
aF0.41931393468876732
aF0.52414241836095921
aF0.52414241836095921
aF0.52414241836095921
aF0.457495710997814
aF0.60999428133041866
aF0.457495710997814
aF0.457495710997814
aF0.5
aF0.5
aF0.5
aF0.5
aF0.5
aF0.5
aF0.5
aF0.5
aF0.457495710997814
aF0.457495710997814
aF0.60999428133041866
aF0.457495710997814
aF0.5
aF0.5
aF0.5
aF0.5
aF0.69631062382279141
aF0.3481553119113957
aF0.3481553119113957
aF0.5222329678670935
aF0.50529115263991142
aF0.42107596053325946
aF0.33686076842660762
aF0.67372153685321523
aF0.41602514716892186
aF0.41602514716892186
aF0.41602514716892186
aF0.69337524528153649
aF0.5
aF0.5
aF0.5
aF0.5
aF0.39056673294247163
aF0.52075564392329554
aF0.6509445549041194
aF0.39056673294247163
aF0.44007280819117284
aF0.61121223359885113
aF0.48896978687908094
aF0.44007280819117284
aF0.43643578047198478
aF0.43643578047198478
aF0.6546536707079772
aF0.43643578047198478
aF0.46816458878452227
aF0.58520573598065284
aF0.46816458878452227
aF0.46816458878452227
aF0.48377944684689672
aF0.43979949713354244
aF0.43979949713354244
aF0.6157192959869594
aF0.5388159060803247
aF0.35921060405354976
aF0.5388159060803247
aF0.5388159060803247
aF0.457495710997814
aF0.457495710997814
aF0.457495710997814
aF0.60999428133041866
aF0.29172998299578912
aF0.43759497449368367
aF0.43759497449368367
aF0.72932495748947279
aF0.5
aF0.5
aF0.5
aF0.5
aF0.48666426339228763
aF0.48666426339228763
aF0.32444284226152509
aF0.64888568452305018
aF0.55215763037423271
aF0.44172610429938614
aF0.55215763037423271
aF0.44172610429938614
aF0.39223227027636809
aF0.39223227027636809
aF0.58834840541455213
aF0.58834840541455213
aF0.38395699922399551
aF0.6119314675132429
aF0.43195162412699495
aF0.53993953015874374
aF0.5
aF0.5
aF0.5
aF0.5
aF0.43643578047198478
aF0.6546536707079772
aF0.43643578047198478
aF0.43643578047198478
aF0.44901325506693729
aF0.44901325506693729
aF0.44901325506693729
aF0.62861855709371217
aF0.43643578047198478
aF0.43643578047198478
aF0.43643578047198478
aF0.6546536707079772
aF0.5
aF0.5
aF0.5
aF0.5
aF0.5
aF0.5
aF0.5
aF0.5
aF0.6546536707079772
aF0.43643578047198478
aF0.43643578047198478
aF0.43643578047198478
aF0.42332439077261874
aF0.42332439077261874
aF0.51739647761097851
aF0.61146856444933817
aF0.57480124892951046
aF0.53648116566754311
aF0.30656066609573895
aF0.53648116566754311
aF0.5388159060803247
aF0.5388159060803247
aF0.35921060405354982
aF0.5388159060803247
aF0.5
aF0.5
aF0.5
aF0.5
aF0.34188172937891381
aF0.45584230583855179
aF0.68376345875782762
aF0.45584230583855179
aF0.40000000000000002
aF0.53333333333333333
aF0.66666666666666663
aF0.33333333333333331
aF0.6509445549041194
aF0.52075564392329554
aF0.39056673294247163
aF0.39056673294247163
aF0.44539933408304444
aF0.63628476297577774
aF0.44539933408304444
aF0.44539933408304444
aF0.31311214554257477
aF0.81409157841069435
aF0.37573457465108973
aF0.31311214554257477
aF0.73989357576348536
aF0.40357831405281019
aF0.31389424426329682
aF0.43720984022387771
aF0.69631062382279141
aF0.5222329678670935
aF0.3481553119113957
aF0.3481553119113957
aF0.48666426339228763
aF0.48666426339228763
aF0.64888568452305018
aF0.32444284226152509
aF0.41602514716892186
aF0.41602514716892186
aF0.69337524528153649
aF0.41602514716892186
aF0.44539933408304444
aF0.44539933408304444
aF0.44539933408304444
aF0.63628476297577774
aF0.43643578047198478
aF0.6546536707079772
aF0.43643578047198478
aF0.43643578047198478
aF0.47885213068057331
aF0.55866081912733556
aF0.47885213068057331
aF0.47885213068057331
aF0.5
aF0.5
aF0.5
aF0.5
aF0.44290922588661319
aF0.49827287912243984
aF0.38754557265078654
aF0.63668201221200649
aF0.58834840541455213
aF0.58834840541455213
aF0.39223227027636809
aF0.39223227027636809
aF0.57735026918962573
aF0.57735026918962573
aF0.34641016151377541
aF0.46188021535170054
aF0.43643578047198478
aF0.6546536707079772
aF0.43643578047198478
aF0.43643578047198478
aF0.64888568452305018
aF0.48666426339228763
aF0.32444284226152509
aF0.48666426339228763
aF0.6546536707079772
aF0.43643578047198478
aF0.43643578047198478
aF0.43643578047198478
aF0.46816458878452227
aF0.46816458878452227
aF0.58520573598065284
aF0.46816458878452227
aF0.6719319439596787
aF0.42759305524706825
aF0.42759305524706825
aF0.42759305524706825
aF0.7980868844676221
aF0.31923475378704885
aF0.31923475378704885
aF0.39904344223381105
aF0.49656353316142077
aF0.49656353316142077
aF0.41380294430118397
aF0.57932412202165751
aF0.63372425052447789
aF0.44360697536713456
aF0.38023455031468678
aF0.50697940041958234
aF0.5337449961641163
aF0.5337449961641163
aF0.5337449961641163
aF0.38124642583151169
aF0.48418202613504197
aF0.54470477940192219
aF0.48418202613504197
aF0.48418202613504197
aF0.6681835438646867
aF0.42954656391301288
aF0.42954656391301288
aF0.42954656391301288
aF0.41446247249213586
aF0.3552535478504022
aF0.44406693481300274
aF0.71050709570080439
aF0.5
aF0.5
aF0.5
aF0.5
aF0.43643578047198478
aF0.43643578047198478
aF0.6546536707079772
aF0.43643578047198478
aF0.5
aF0.5
aF0.5
aF0.5
aF0.457495710997814
aF0.457495710997814
aF0.457495710997814
aF0.60999428133041866
aF0.72289739601224901
aF0.56225353023174918
aF0.24096579867074966
aF0.32128773156099955
aF0.47457899787624952
aF0.47457899787624952
aF0.47457899787624952
aF0.56949479745149945
aF0.48595432244043502
aF0.53994924715603887
aF0.48595432244043502
aF0.48595432244043502
aF0.56046979762699489
aF0.56046979762699489
aF0.43113061355922688
aF0.43113061355922688
aF0.65361987034609237
aF0.41281254969226883
aF0.48161464130764697
aF0.41281254969226883
aF0.39056673294247163
aF0.6509445549041194
aF0.52075564392329554
aF0.39056673294247163
aF0.29814239699997197
aF0.59628479399994394
aF0.59628479399994394
aF0.44721359549995793
aF0.35267280792929911
aF0.28213824634343931
aF0.84641473903031794
aF0.28213824634343931
aF0.50218437038242469
aF0.37663827778681847
aF0.46033567285055593
aF0.62773046297803081
aF0.66688592885535025
aF0.35909242322980395
aF0.4616902584383194
aF0.4616902584383194
aF0.44666250028691856
aF0.49629166698546512
aF0.44666250028691856
aF0.59555000038255812
aF0.5
aF0.5
aF0.5
aF0.5
aF0.4886033689318432
aF0.69800481275977599
aF0.41880288765586565
aF0.31410216574189925
aF0.69230769230769229
aF0.46153846153846156
aF0.30769230769230771
aF0.46153846153846156
aF0.52750437871662958
aF0.59344242605620834
aF0.39562828403747219
aF0.46156633137705089
aF0.43643578047198472
aF0.65465367070797709
aF0.43643578047198472
aF0.43643578047198472
aF0.45218673515537722
aF0.45218673515537722
aF0.62175676083864362
aF0.45218673515537722
aF0.6394227626801684
aF0.40259951724306897
aF0.49732881541790874
aF0.42628184178677891
aF0.46816458878452227
aF0.46816458878452227
aF0.46816458878452227
aF0.58520573598065284
aF0.5
aF0.5
aF0.5
aF0.5
aF0.41931393468876732
aF0.52414241836095921
aF0.52414241836095921
aF0.52414241836095921
aF0.47699904600286203
aF0.26499947000159002
aF0.47699904600286203
aF0.68899862200413409
aF0.43643578047198478
aF0.43643578047198478
aF0.6546536707079772
aF0.43643578047198478
aF0.43643578047198478
aF0.6546536707079772
aF0.43643578047198478
aF0.43643578047198478
aF0.5633368246415098
aF0.45066945971320782
aF0.45066945971320782
aF0.52578103633207574
aF0.44901325506693729
aF0.62861855709371217
aF0.44901325506693729
aF0.44901325506693729
aF0.35503580124836315
aF0.52071917516426591
aF0.47338106833115084
aF0.61539538883049616
aF0.5337449961641163
aF0.5337449961641163
aF0.5337449961641163
aF0.38124642583151169
aF0.50783337507700821
aF0.72547625011001171
aF0.29019050004400465
aF0.36273812505500586
aF0.28626250678580528
aF0.46517657352693359
aF0.28626250678580528
aF0.78722189366096451
aF0.60999428133041866
aF0.457495710997814
aF0.457495710997814
aF0.457495710997814
aF0.457495710997814
aF0.60999428133041866
aF0.457495710997814
aF0.457495710997814
aF0.5
aF0.5
aF0.5
aF0.5
aF0.69631062382279141
aF0.3481553119113957
aF0.5222329678670935
aF0.3481553119113957
aF0.44901325506693729
aF0.44901325506693729
aF0.62861855709371217
aF0.44901325506693729
aF0.5
aF0.5
aF0.5
aF0.5
aF0.54554472558998102
aF0.54554472558998102
aF0.54554472558998102
aF0.3273268353539886
aF0.60999428133041866
aF0.457495710997814
aF0.457495710997814
aF0.457495710997814
aF0.6546536707079772
aF0.43643578047198478
aF0.43643578047198478
aF0.43643578047198478
aF0.60268457716418256
aF0.33482476509121251
aF0.40178971810945502
aF0.60268457716418256
aF0.5
aF0.5
aF0.5
aF0.5
aF0.457495710997814
aF0.457495710997814
aF0.60999428133041866
aF0.457495710997814
aF0.46816458878452227
aF0.46816458878452227
aF0.58520573598065284
aF0.46816458878452227
aF0.26832815729997472
aF0.35777087639996635
aF0.71554175279993271
aF0.53665631459994945
aF0.5
aF0.5
aF0.5
aF0.5
aF0.55815630565143803
aF0.55815630565143803
aF0.43412157106222959
aF0.43412157106222959
aF0.5388159060803247
aF0.35921060405354982
aF0.5388159060803247
aF0.5388159060803247
aF0.457495710997814
aF0.60999428133041866
aF0.457495710997814
aF0.457495710997814
aF0.5
aF0.5
aF0.5
aF0.5
aF0.64715022892943397
aF0.36980013081681939
aF0.36980013081681939
aF0.55470019622522904
aF0.5
aF0.5
aF0.5
aF0.5
aF0.42193257243501098
aF0.42193257243501098
aF0.56742656292984228
aF0.56742656292984228
aF0.36380343755449945
aF0.36380343755449945
aF0.60633906259083248
aF0.60633906259083248
aF0.5
aF0.5
aF0.5
aF0.5
aF0.3779644730092272
aF0.3779644730092272
aF0.7559289460184544
aF0.3779644730092272
aF0.41602514716892186
aF0.41602514716892186
aF0.69337524528153649
aF0.41602514716892186
aF0.48666426339228763
aF0.48666426339228763
aF0.64888568452305018
aF0.32444284226152509
aF0.57655666019705509
aF0.47172817652486326
aF0.47172817652486326
aF0.47172817652486326
aF0.31622776601683794
aF0.63245553203367588
aF0.63245553203367588
aF0.31622776601683794
aF0.5
aF0.5
aF0.5
aF0.5
aF0.47140452079103173
aF0.23570226039551587
aF0.70710678118654757
aF0.47140452079103173
aF0.54272042023997447
aF0.42211588240886905
aF0.54272042023997447
aF0.48241815132442173
aF0.47961646018645893
aF0.47961646018645893
aF0.51958449853533051
aF0.51958449853533051
aF0.51745488966820097
aF0.51745488966820097
aF0.44353276257274371
aF0.51745488966820097
aF0.27975144247209416
aF0.27975144247209416
aF0.37300192329612547
aF0.83925432741628236
aF0.46816458878452227
aF0.46816458878452227
aF0.46816458878452227
aF0.58520573598065284
aF0.43643578047198478
aF0.43643578047198478
aF0.6546536707079772
aF0.43643578047198478
aF0.5
aF0.5
aF0.5
aF0.5
aF0.6546536707079772
aF0.43643578047198478
aF0.43643578047198478
aF0.43643578047198478
aF0.4902248741509504
aF0.60461067811950553
aF0.4902248741509504
aF0.39217989932076031
aF0.42954656391301288
aF0.42954656391301288
aF0.42954656391301288
aF0.6681835438646867
aF0.5726562866781999
aF0.5726562866781999
aF0.38177085778546666
aF0.44539933408304444
aF0.50251890762960605
aF0.40201512610368484
aF0.30151134457776363
aF0.70352647068144847
aF0.31277162108561218
aF0.72980044919976172
aF0.31277162108561218
aF0.5212860351426869
aF0.6546536707079772
aF0.43643578047198478
aF0.43643578047198478
aF0.43643578047198478
aF0.54554472558998102
aF0.54554472558998102
aF0.54554472558998102
aF0.3273268353539886
aF0.31622776601683794
aF0.63245553203367588
aF0.63245553203367588
aF0.31622776601683794
aF0.6546536707079772
aF0.43643578047198478
aF0.43643578047198478
aF0.43643578047198478
aF0.41099746826339323
aF0.57539645556875052
aF0.41099746826339323
aF0.57539645556875052
aF0.26490647141300877
aF0.52981294282601754
aF0.79471941423902626
aF0.13245323570650439
aF0.5
aF0.5
aF0.5
aF0.5
aF0.39785412693524042
aF0.72466287406061636
aF0.39785412693524042
aF0.39785412693524042
aF0.47759592647116123
aF0.47759592647116123
aF0.47759592647116123
aF0.56187756055430738
aF0.457495710997814
aF0.457495710997814
aF0.457495710997814
aF0.60999428133041866
aF0.54554472558998102
aF0.54554472558998102
aF0.54554472558998102
aF0.3273268353539886
aF0.38910393105040525
aF0.38910393105040525
aF0.30263639081698185
aF0.7782078621008105
aF0.37748543039212529
aF0.67947377470582559
aF0.50331390718950042
aF0.37748543039212529
aF0.45442376260814593
aF0.47966952719748734
aF0.55540682096551164
aF0.50491529178682881
aF0.49805824509175228
aF0.49805824509175228
aF0.5603155257282213
aF0.43580096445528327
aF0.55815630565143803
aF0.55815630565143803
aF0.43412157106222965
aF0.43412157106222965
aF0.43643578047198478
aF0.6546536707079772
aF0.43643578047198478
aF0.43643578047198478
aF0.5
aF0.5
aF0.5
aF0.5
aF0.58834840541455213
aF0.39223227027636809
aF0.39223227027636809
aF0.58834840541455213
aF0.56635211395485408
aF0.39977796279166172
aF0.39977796279166172
aF0.59966694418749256
aF0.5
aF0.5
aF0.5
aF0.5
aF0.5
aF0.5
aF0.5
aF0.5
aF0.63012603781260434
aF0.4900980294098034
aF0.4900980294098034
aF0.35007002100700241
aF0.60999428133041866
aF0.457495710997814
aF0.457495710997814
aF0.457495710997814
aF0.46358632497276531
aF0.46358632497276531
aF0.59603956067926966
aF0.46358632497276531
aF0.46816458878452227
aF0.46816458878452227
aF0.46816458878452227
aF0.58520573598065284
aF0.62217101683825515
aF0.4147806778921701
aF0.51847584736521268
aF0.4147806778921701
aF0.58520573598065284
aF0.46816458878452227
aF0.46816458878452227
aF0.46816458878452227
aF0.63245553203367588
aF0.63245553203367588
aF0.31622776601683794
aF0.31622776601683794
aF0.457495710997814
aF0.60999428133041866
aF0.457495710997814
aF0.457495710997814
aF0.7559289460184544
aF0.3779644730092272
aF0.3779644730092272
aF0.3779644730092272
aF0.3847547969505189
aF0.3847547969505189
aF0.43971976794345013
aF0.7145446229081065
aF0.32444284226152509
aF0.64888568452305018
aF0.48666426339228763
aF0.48666426339228763
aF0.44690335363431521
aF0.63311308431527991
aF0.44690335363431521
aF0.44690335363431521
aF0.5
aF0.5
aF0.5
aF0.5
aF0.3779644730092272
aF0.3779644730092272
aF0.3779644730092272
aF0.7559289460184544
aF0.62217101683825515
aF0.4147806778921701
aF0.4147806778921701
aF0.51847584736521268
aF0.5
aF0.5
aF0.5
aF0.5
aF0.5
aF0.5
aF0.5
aF0.5
aF0.43643578047198478
aF0.43643578047198478
aF0.6546536707079772
aF0.43643578047198478
aF0.31622776601683794
aF0.63245553203367588
aF0.63245553203367588
aF0.31622776601683794
aF0.5
aF0.5
aF0.5
aF0.5
aF0.35921060405354982
aF0.5388159060803247
aF0.5388159060803247
aF0.5388159060803247
aF0.5
aF0.5
aF0.5
aF0.5
aF0.457495710997814
aF0.457495710997814
aF0.457495710997814
aF0.60999428133041866
aF0.457495710997814
aF0.60999428133041866
aF0.457495710997814
aF0.457495710997814
aF0.5
aF0.5
aF0.5
aF0.5
aF0.3481553119113957
aF0.5222329678670935
aF0.69631062382279141
aF0.3481553119113957
aF0.31822291367029198
aF0.39777864208786501
aF0.47733437050543803
aF0.71600155575815705
aF0.54772255750516607
aF0.18257418583505536
aF0.73029674334022143
aF0.36514837167011072
aF0.47172817652486326
aF0.47172817652486326
aF0.47172817652486326
aF0.57655666019705509
aF0.56568542494923801
aF0.42426406871192851
aF0.42426406871192851
aF0.56568542494923801
aF0.3481553119113957
aF0.69631062382279141
aF0.3481553119113957
aF0.5222329678670935
aF0.5
aF0.5
aF0.5
aF0.5
aF0.40851433695053219
aF0.45957862906934877
aF0.38298219089112395
aF0.68936794360402309
aF0.50529115263991142
aF0.33686076842660762
aF0.67372153685321523
aF0.42107596053325946
aF0.5
aF0.5
aF0.5
aF0.5
aF0.43643578047198478
aF0.6546536707079772
aF0.43643578047198478
aF0.43643578047198478
aF0.50901929472102225
aF0.50901929472102225
aF0.55529377605929697
aF0.41647033204447276
aF0.51465023546566535
aF0.44112877325628463
aF0.58817169767504618
aF0.44112877325628463
aF0.58826984898114032
aF0.39217989932076025
aF0.53924736156604536
aF0.45754321587422031
aF0.64888568452305018
aF0.48666426339228763
aF0.32444284226152509
aF0.48666426339228763
aF0.5792844463634923
aF0.40549911245444459
aF0.40549911245444459
aF0.5792844463634923
aF0.44721359549995793
aF0.59628479399994394
aF0.59628479399994394
aF0.29814239699997197
aF0.43643578047198478
aF0.43643578047198478
aF0.6546536707079772
aF0.43643578047198478
aF0.5388159060803247
aF0.35921060405354982
aF0.5388159060803247
aF0.5388159060803247
aF0.18257418583505536
aF0.54772255750516607
aF0.36514837167011072
aF0.73029674334022143
aF0.5
aF0.5
aF0.5
aF0.5
aF0.5
aF0.5
aF0.5
aF0.5
aF0.5
aF0.5
aF0.5
aF0.5
aF0.5
aF0.5
aF0.5
aF0.5
aF0.457495710997814
aF0.60999428133041866
aF0.457495710997814
aF0.457495710997814
aF0.54433105395181736
aF0.27216552697590868
aF0.40824829046386302
aF0.6804138174397717
aF0.58834840541455213
aF0.39223227027636809
aF0.58834840541455213
aF0.39223227027636809
aF0.39223227027636809
aF0.39223227027636809
aF0.58834840541455213
aF0.58834840541455213
aF0.55397594967504837
aF0.52759614254766507
aF0.36931729978336553
aF0.52759614254766507
aF0.46816458878452227
aF0.46816458878452227
aF0.46816458878452227
aF0.58520573598065284
aF0.5
aF0.5
aF0.5
aF0.5
aF0.5388159060803247
aF0.5388159060803247
aF0.5388159060803247
aF0.35921060405354982
aF0.44339817517393193
aF0.6404640308067906
aF0.44339817517393193
aF0.44339817517393193
aF0.60633906259083248
aF0.36380343755449945
aF0.36380343755449945
aF0.60633906259083248
aF0.5
aF0.5
aF0.5
aF0.5
aF0.457495710997814
aF0.60999428133041866
aF0.457495710997814
aF0.457495710997814
aF0.41602514716892186
aF0.41602514716892186
aF0.41602514716892186
aF0.69337524528153649
aF0.457495710997814
aF0.457495710997814
aF0.60999428133041866
aF0.457495710997814
aF0.6546536707079772
aF0.43643578047198478
aF0.43643578047198478
aF0.43643578047198478
aF0.41931393468876732
aF0.52414241836095921
aF0.52414241836095921
aF0.52414241836095921
aF0.77615052570633281
aF0.31046021028253312
aF0.3880752628531664
aF0.3880752628531664
aF0.5
aF0.5
aF0.5
aF0.5
aF0.3779644730092272
aF0.3779644730092272
aF0.7559289460184544
aF0.3779644730092272
aF0.6546536707079772
aF0.43643578047198478
aF0.43643578047198478
aF0.43643578047198478
aF0.46816458878452227
aF0.46816458878452227
aF0.58520573598065284
aF0.46816458878452227
aF0.2300789234172203
aF0.69023677025166097
aF0.37387825055298302
aF0.57519730854305084
aF0.70398946939604701
aF0.32491821664432941
aF0.5415303610738823
aF0.32491821664432941
aF0.45510409919085942
aF0.45510409919085942
aF0.5119921115897168
aF0.56888012398857424
aF0.7559289460184544
aF0.3779644730092272
aF0.3779644730092272
aF0.3779644730092272
aF0.46358632497276531
aF0.46358632497276531
aF0.59603956067926966
aF0.46358632497276531
aF0.3779644730092272
aF0.7559289460184544
aF0.3779644730092272
aF0.3779644730092272
aF0.52981294282601754
aF0.39735970711951313
aF0.52981294282601754
aF0.52981294282601754
aF0.5
aF0.5
aF0.5
aF0.5
aF0.43643578047198478
aF0.43643578047198478
aF0.43643578047198478
aF0.6546536707079772
aF0.46281225543078786
aF0.35600942725445223
aF0.640816969058014
aF0.49841319815623308
aF0.44901325506693729
aF0.62861855709371217
aF0.44901325506693729
aF0.44901325506693729
aF0.58820877128290372
aF0.457495710997814
aF0.41392469090278411
aF0.52285224114035889
aF0.457495710997814
aF0.60999428133041866
aF0.457495710997814
aF0.457495710997814
aF0.47001599194042171
aF0.50617106824353109
aF0.43386091563731233
aF0.57848122084974984
aF0.46816458878452227
aF0.46816458878452227
aF0.58520573598065284
aF0.46816458878452227
aF0.5119921115897168
aF0.45510409919085942
aF0.45510409919085942
aF0.56888012398857424
aF0.58520573598065284
aF0.46816458878452227
aF0.46816458878452227
aF0.46816458878452227
aF0.39605901719066977
aF0.4950737714883372
aF0.4950737714883372
aF0.59408852578600457
aF0.43033148291193524
aF0.43033148291193524
aF0.60246407607670927
aF0.51639777949432231
aF0.51189069688899147
aF0.51189069688899147
aF0.58501793930170454
aF0.36563621206356534
aF0.5
aF0.5
aF0.5
aF0.5
aF0.5
aF0.5
aF0.5
aF0.5
aF0.457495710997814
aF0.457495710997814
aF0.457495710997814
aF0.60999428133041866
aF0.43643578047198478
aF0.6546536707079772
aF0.43643578047198478
aF0.43643578047198478
aF0.5
aF0.5
aF0.5
aF0.5
aF0.39056673294247163
aF0.52075564392329554
aF0.39056673294247163
aF0.6509445549041194
aF0.46168788545980899
aF0.46168788545980899
aF0.490543378301047
aF0.57710985682476124
aF0.39056673294247163
aF0.39056673294247163
aF0.6509445549041194
aF0.52075564392329554
aF0.57539645556875052
aF0.41099746826339323
aF0.57539645556875052
aF0.41099746826339323
aF0.43643578047198478
aF0.43643578047198478
aF0.43643578047198478
aF0.6546536707079772
aF0.5644325210301584
aF0.37628834735343891
aF0.47036043419179863
aF0.5644325210301584
aF0.52981294282601754
aF0.52981294282601754
aF0.52981294282601754
aF0.39735970711951313
aF0.60999428133041866
aF0.457495710997814
aF0.457495710997814
aF0.457495710997814
aF0.55048188256318031
aF0.55048188256318031
aF0.49543369430686229
aF0.3853373177942262
aF0.457495710997814
aF0.60999428133041866
aF0.457495710997814
aF0.457495710997814
aF0.39223227027636809
aF0.39223227027636809
aF0.58834840541455213
aF0.58834840541455213
aF0.41602514716892186
aF0.41602514716892186
aF0.69337524528153649
aF0.41602514716892186
aF0.42426406871192851
aF0.42426406871192851
aF0.56568542494923801
aF0.56568542494923801
aF0.43643578047198478
aF0.43643578047198478
aF0.6546536707079772
aF0.43643578047198478
aF0.53687549219315922
aF0.46017899330842221
aF0.53687549219315922
aF0.46017899330842221
aF0.58834840541455213
aF0.39223227027636809
aF0.39223227027636809
aF0.58834840541455213
aF0.54321447625511121
aF0.54321447625511121
aF0.45267873021259264
aF0.45267873021259264
aF0.56568542494923801
aF0.56568542494923801
aF0.42426406871192851
aF0.42426406871192851
aF0.46429393952048209
aF0.38691161626706844
aF0.69644090928072311
aF0.38691161626706844
aF0.39440531887330771
aF0.61977978680091217
aF0.45074893585520881
aF0.50709255283710997
aF0.3779644730092272
aF0.3779644730092272
aF0.3779644730092272
aF0.7559289460184544
aF0.58651839038916065
aF0.61584430990861871
aF0.3519110342334964
aF0.39101226025944047
aF0.5
aF0.5
aF0.5
aF0.5
aF0.43246144425065081
aF0.61780206321521547
aF0.4942416505721724
aF0.43246144425065081
aF0.42579703632987959
aF0.47902166587111455
aF0.63869555449481941
aF0.42579703632987959
aF0.5
aF0.5
aF0.5
aF0.5
aF0.85280286542244166
aF0.42640143271122083
aF0.21320071635561041
aF0.21320071635561041
aF0.47424367491514957
aF0.47424367491514957
aF0.60358285898291764
aF0.43113061355922688
aF0.46816458878452227
aF0.46816458878452227
aF0.46816458878452227
aF0.58520573598065284
aF0.57166195047502943
aF0.34299717028501769
aF0.62882814552253241
aF0.40016336533252062
aF0.51875647490395438
aF0.51875647490395438
aF0.51875647490395438
aF0.43894778645719218
aF0.490543378301047
aF0.46168788545980899
aF0.46168788545980899
aF0.57710985682476124
aF0.54193110299036129
aF0.54193110299036129
aF0.54193110299036129
aF0.34486524735750262
aF0.52203689766387451
aF0.52203689766387451
aF0.52203689766387451
aF0.42712109808862458
aF0.58834840541455213
aF0.39223227027636809
aF0.39223227027636809
aF0.58834840541455213
aF0.5
aF0.5
aF0.5
aF0.5
aF0.5
aF0.5
aF0.5
aF0.5
aF0.37476584449793071
aF0.59962535119668914
aF0.37476584449793071
aF0.59962535119668914
aF0.36363636363636365
aF0.36363636363636365
aF0.72727272727272729
aF0.45454545454545453
aF0.5
aF0.5
aF0.5
aF0.5
aF0.457495710997814
aF0.60999428133041866
aF0.457495710997814
aF0.457495710997814
aF0.34065502384700908
aF0.52990781487312522
aF0.52990781487312522
aF0.56775837307834853
aF0.48199078055518124
aF0.42528598284280705
aF0.5954003759799299
aF0.48199078055518124
aF0.31622776601683794
aF0.31622776601683794
aF0.63245553203367588
aF0.63245553203367588
aF0.62554324217122437
aF0.20851441405707477
aF0.41702882811414954
aF0.62554324217122437
aF0.46816458878452227
aF0.58520573598065284
aF0.46816458878452227
aF0.46816458878452227
aF0.45074893585520881
aF0.50709255283710997
aF0.39440531887330771
aF0.61977978680091217
aF0.46816458878452227
aF0.46816458878452227
aF0.58520573598065284
aF0.46816458878452227
aF0.4950737714883372
aF0.59408852578600457
aF0.39605901719066977
aF0.4950737714883372
aF0.23570226039551587
aF0.70710678118654757
aF0.47140452079103173
aF0.47140452079103173
aF0.45066945971320782
aF0.5633368246415098
aF0.45066945971320782
aF0.52578103633207585
aF0.59408852578600457
aF0.39605901719066977
aF0.4950737714883372
aF0.4950737714883372
aF0.36380343755449945
aF0.60633906259083248
aF0.36380343755449945
aF0.60633906259083248
aF0.59962535119668914
aF0.37476584449793071
aF0.59962535119668914
aF0.37476584449793071
aF0.457495710997814
aF0.457495710997814
aF0.60999428133041866
aF0.457495710997814
aF0.5
aF0.5
aF0.5
aF0.5
aF0.46291004988627571
aF0.77151674981045948
aF0.30860669992418382
aF0.30860669992418382
aF0.5
aF0.5
aF0.5
aF0.5
aF0.5
aF0.5
aF0.5
aF0.5
aF0.46816458878452227
aF0.58520573598065284
aF0.46816458878452227
aF0.46816458878452227
aF0.64888568452305018
aF0.48666426339228763
aF0.32444284226152509
aF0.48666426339228763
aF0.5
aF0.5
aF0.5
aF0.5
aF0.55470019622522915
aF0.55470019622522915
aF0.27735009811261457
aF0.55470019622522915
aF0.49656353316142077
aF0.41380294430118397
aF0.57932412202165751
aF0.49656353316142077
aF0.62861855709371217
aF0.44901325506693729
aF0.44901325506693729
aF0.44901325506693729
aF0.52174919474995085
aF0.67082039324993692
aF0.37267799624996495
aF0.37267799624996495
aF0.5
aF0.5
aF0.5
aF0.5
aF0.43643578047198478
aF0.43643578047198478
aF0.6546536707079772
aF0.43643578047198478
aF0.50872931212664096
aF0.46959628811689941
aF0.54786233613638258
aF0.46959628811689941
aF0.51073293043697665
aF0.51073293043697665
aF0.51073293043697665
aF0.46632137126854389
aF0.60999428133041866
aF0.457495710997814
aF0.457495710997814
aF0.457495710997814
aF0.53215208419019144
aF0.46563307366641754
aF0.53215208419019144
aF0.46563307366641754
aF0.49788681843744187
aF0.49788681843744187
aF0.43294505951081902
aF0.56282857736406466
aF0.74926864926535519
aF0.46829290579084698
aF0.28097574347450821
aF0.3746343246326776
aF0.55470019622522915
aF0.55470019622522915
aF0.55470019622522915
aF0.27735009811261457
aF0.43643578047198478
aF0.43643578047198478
aF0.6546536707079772
aF0.43643578047198478
aF0.45218673515537722
aF0.45218673515537722
aF0.62175676083864362
aF0.45218673515537722
aF0.46816458878452227
aF0.46816458878452227
aF0.46816458878452227
aF0.58520573598065284
aF0.58520573598065284
aF0.46816458878452227
aF0.46816458878452227
aF0.46816458878452227
aF0.42107596053325946
aF0.50529115263991142
aF0.33686076842660762
aF0.67372153685321523
aF0.36363636363636365
aF0.36363636363636365
aF0.45454545454545453
aF0.72727272727272729
aF0.457495710997814
aF0.60999428133041866
aF0.457495710997814
aF0.457495710997814
aF0.58834840541455213
aF0.39223227027636809
aF0.39223227027636809
aF0.58834840541455213
aF0.39223227027636809
aF0.58834840541455213
aF0.39223227027636809
aF0.58834840541455213
aF0.43643578047198478
aF0.43643578047198478
aF0.43643578047198478
aF0.6546536707079772
aF0.46358632497276531
aF0.46358632497276531
aF0.46358632497276531
aF0.59603956067926966
aF0.5
aF0.5
aF0.5
aF0.5
aF0.51011278533618509
aF0.4637388957601683
aF0.55648667491220194
aF0.4637388957601683
aF0.40824829046386296
aF0.46656947481584343
aF0.52489065916782385
aF0.58321184351980426
aF0.41602514716892186
aF0.41602514716892186
aF0.69337524528153649
aF0.41602514716892186
aF0.5
aF0.5
aF0.5
aF0.5
aF0.5
aF0.5
aF0.5
aF0.5
aF0.5
aF0.5
aF0.5
aF0.5
aF0.43643578047198478
aF0.6546536707079772
aF0.43643578047198478
aF0.43643578047198478
aF0.58370840541777902
aF0.52533756487600103
aF0.43778130406333421
aF0.43778130406333421
aF0.5388159060803247
aF0.35921060405354982
aF0.5388159060803247
aF0.5388159060803247
aF0.48949020986880254
aF0.48949020986880254
aF0.48949020986880254
aF0.53028106069120273
aF0.57655666019705509
aF0.47172817652486326
aF0.47172817652486326
aF0.47172817652486326
aF0.46358632497276531
aF0.46358632497276531
aF0.46358632497276531
aF0.59603956067926966
aF0.51189069688899147
aF0.58501793930170454
aF0.36563621206356534
aF0.51189069688899147
aF0.51231551957855992
aF0.51231551957855992
aF0.46108396762070392
aF0.51231551957855992
aF0.56568542494923801
aF0.42426406871192851
aF0.56568542494923801
aF0.42426406871192851
aF0.39703333358837206
aF0.54592083368401156
aF0.49629166698546512
aF0.54592083368401156
aF0.52981294282601754
aF0.52981294282601754
aF0.39735970711951313
aF0.52981294282601754
aF0.5388159060803247
aF0.5388159060803247
aF0.5388159060803247
aF0.35921060405354982
aF0.39056673294247163
aF0.52075564392329554
aF0.6509445549041194
aF0.39056673294247163
aF0.43643578047198478
aF0.43643578047198478
aF0.43643578047198478
aF0.6546536707079772
aF0.5
aF0.5
aF0.5
aF0.5
aF0.43643578047198478
aF0.6546536707079772
aF0.43643578047198478
aF0.43643578047198478
aF0.5
aF0.5
aF0.5
aF0.5
aF0.47063159926639775
aF0.47063159926639775
aF0.57923889140479723
aF0.47063159926639775
aF0.5
aF0.5
aF0.5
aF0.5
aF0.43759497449368367
aF0.43759497449368367
aF0.29172998299578912
aF0.72932495748947279
aF0.64715022892943397
aF0.36980013081681939
aF0.36980013081681939
aF0.55470019622522904
aF0.63725298787716611
aF0.19117589636314983
aF0.47793974090787456
aF0.57352768908944951
aF0.5388159060803247
aF0.35921060405354982
aF0.5388159060803247
aF0.5388159060803247
aF0.62554324217122437
aF0.41702882811414954
aF0.20851441405707477
aF0.62554324217122437
aF0.47902166587111455
aF0.42579703632987959
aF0.42579703632987959
aF0.63869555449481941
aF0.3779644730092272
aF0.3779644730092272
aF0.3779644730092272
aF0.7559289460184544
aF0.43643578047198478
aF0.43643578047198478
aF0.43643578047198478
aF0.6546536707079772
aF0.44901325506693729
aF0.62861855709371217
aF0.44901325506693729
aF0.44901325506693729
aF0.5
aF0.5
aF0.5
aF0.5
aF0.44172610429938614
aF0.55215763037423271
aF0.44172610429938614
aF0.55215763037423271
aF0.5
aF0.5
aF0.5
aF0.5
aF0.5
aF0.5
aF0.5
aF0.5
aF0.43643578047198478
aF0.43643578047198478
aF0.43643578047198478
aF0.6546536707079772
aF0.5
aF0.5
aF0.5
aF0.5
aF0.5
aF0.5
aF0.5
aF0.5
aF0.4635863249727652
aF0.46358632497276531
aF0.46358632497276531
aF0.59603956067926966
aF0.31622776601683794
aF0.63245553203367588
aF0.63245553203367588
aF0.31622776601683794
aF0.35714285714285715
aF0.7857142857142857
aF0.35714285714285715
aF0.35714285714285715
aF0.31622776601683794
aF0.63245553203367588
aF0.63245553203367588
aF0.31622776601683794
aF0.49100143668232604
aF0.52607296787392077
aF0.49100143668232604
aF0.49100143668232604
aF0.49409660533043642
aF0.55110775209933294
aF0.49409660533043642
aF0.45608917415117212
aF0.46816458878452227
aF0.58520573598065284
aF0.46816458878452227
aF0.46816458878452227
aF0.58834840541455213
aF0.39223227027636809
aF0.58834840541455213
aF0.39223227027636809
aF0.60553007081949839
aF0.44038550605054427
aF0.49543369430686229
aF0.44038550605054427
aF0.3779644730092272
aF0.3779644730092272
aF0.7559289460184544
aF0.3779644730092272
aF0.57539645556875052
aF0.57539645556875052
aF0.41099746826339323
aF0.41099746826339323
aF0.37426971693108319
aF0.49902628924144427
aF0.37426971693108319
aF0.68616114770698577
aF0.58881650032940813
aF0.42823018205775137
aF0.42823018205775137
aF0.53528772757218923
aF0.46816458878452227
aF0.46816458878452227
aF0.58520573598065284
aF0.46816458878452227
aF0.5
aF0.5
aF0.5
aF0.5
aF0.51465023546566535
aF0.58817169767504618
aF0.44112877325628463
aF0.44112877325628463
aF0.457495710997814
aF0.60999428133041866
aF0.457495710997814
aF0.457495710997814
aF0.48049382612047237
aF0.48049382612047237
aF0.48049382612047237
aF0.55441595321592962
aF0.5
aF0.5
aF0.5
aF0.5
aF0.52414241836095921
aF0.52414241836095921
aF0.52414241836095921
aF0.41931393468876732
aF0.35603449745815596
aF0.23735633163877065
aF0.35603449745815596
aF0.83074716073569732
aF0.5
aF0.5
aF0.5
aF0.5
aF0.5388159060803247
aF0.5388159060803247
aF0.35921060405354982
aF0.5388159060803247
aF0.55470019622522915
aF0.55470019622522915
aF0.27735009811261457
aF0.55470019622522915
aF0.36380343755449945
aF0.60633906259083248
aF0.60633906259083248
aF0.36380343755449945
aF0.43643578047198478
aF0.43643578047198478
aF0.6546536707079772
aF0.43643578047198478
aF0.5
aF0.5
aF0.5
aF0.5
aF0.5
aF0.5
aF0.5
aF0.5
aF0.5
aF0.5
aF0.5
aF0.5
aF0.83778995972309711
aF0.30074511374675278
aF0.32222690758580658
aF0.32222690758580658
aF0.25607375986579195
aF0.5121475197315839
aF0.5121475197315839
aF0.64018439966447993
aF0.36380343755449945
aF0.60633906259083248
aF0.60633906259083248
aF0.36380343755449945
aF0.5
aF0.5
aF0.5
aF0.5
aF0.43412157106222965
aF0.55815630565143803
aF0.43412157106222965
aF0.55815630565143803
aF0.47087095579741872
aF0.67267279399631241
aF0.40360367639778749
aF0.40360367639778749
aF0.47457899787624952
aF0.47457899787624952
aF0.47457899787624952
aF0.56949479745149945
aF0.42426406871192851
aF0.56568542494923801
aF0.42426406871192851
aF0.56568542494923801
aF0.5
aF0.5
aF0.5
aF0.5
aF0.52981294282601754
aF0.52981294282601754
aF0.39735970711951313
aF0.52981294282601754
aF0.52981294282601754
aF0.39735970711951313
aF0.52981294282601754
aF0.52981294282601754
aF0.37476584449793071
aF0.59962535119668914
aF0.37476584449793071
aF0.59962535119668914
aF0.51961524227066314
aF0.404145188432738
aF0.63508529610858833
aF0.404145188432738
aF0.5
aF0.5
aF0.5
aF0.5
aF0.5
aF0.5
aF0.5
aF0.5
aF0.46816458878452227
aF0.46816458878452227
aF0.58520573598065284
aF0.46816458878452227
aF0.55631920616421315
aF0.51923125908659884
aF0.55631920616421315
aF0.33379152369852788
aF0.5644325210301584
aF0.37628834735343891
aF0.5644325210301584
aF0.47036043419179863
aF0.5
aF0.5
aF0.5
aF0.5
aF0.457495710997814
aF0.457495710997814
aF0.457495710997814
aF0.60999428133041866
aF0.54470477940192219
aF0.48418202613504197
aF0.48418202613504197
aF0.48418202613504197
aF0.58834840541455213
aF0.58834840541455213
aF0.39223227027636809
aF0.39223227027636809
aF0.46816458878452227
aF0.58520573598065284
aF0.46816458878452227
aF0.46816458878452227
aF0.5
aF0.5
aF0.5
aF0.5
aF0.31622776601683794
aF0.63245553203367588
aF0.63245553203367588
aF0.31622776601683794
aF0.43643578047198478
aF0.43643578047198478
aF0.43643578047198478
aF0.6546536707079772
aF0.2581988897471611
aF0.2581988897471611
aF0.7745966692414834
aF0.5163977794943222
aF0.63245553203367588
aF0.31622776601683794
aF0.63245553203367588
aF0.31622776601683794
aF0.42426406871192851
aF0.56568542494923801
aF0.42426406871192851
aF0.56568542494923801
aF0.5
aF0.5
aF0.5
aF0.5
aF0.64715022892943397
aF0.36980013081681939
aF0.55470019622522915
aF0.36980013081681939
aF0.56568542494923801
aF0.42426406871192851
aF0.42426406871192851
aF0.56568542494923801
aF0.57265628667820001
aF0.57265628667820001
aF0.38177085778546666
aF0.44539933408304444
aF0.40991219141109303
aF0.68318698568515501
aF0.40991219141109303
aF0.44407154069535076
aF0.61545745489666359
aF0.4923659639173309
aF0.3692744729379982
aF0.4923659639173309
aF0.67806350362081047
aF0.30512857662936471
aF0.57635397807768884
aF0.33903175181040524
aF0.43643578047198478
aF0.6546536707079772
aF0.43643578047198478
aF0.43643578047198478
aF0.43643578047198478
aF0.43643578047198478
aF0.6546536707079772
aF0.43643578047198478
aF0.5
aF0.5
aF0.5
aF0.5
aF0.457495710997814
aF0.457495710997814
aF0.60999428133041866
aF0.457495710997814
aF0.4147806778921701
aF0.51847584736521268
aF0.4147806778921701
aF0.62217101683825515
aF0.43643578047198478
aF0.43643578047198478
aF0.6546536707079772
aF0.43643578047198478
aF0.69337524528153649
aF0.41602514716892186
aF0.41602514716892186
aF0.41602514716892186
aF0.5
aF0.5
aF0.5
aF0.5
aF0.55074271265721142
aF0.48189987357505998
aF0.48189987357505998
aF0.48189987357505998
aF0.3779644730092272
aF0.3779644730092272
aF0.7559289460184544
aF0.3779644730092272
aF0.5
aF0.5
aF0.5
aF0.5
aF0.5
aF0.5
aF0.5
aF0.5
aF0.457495710997814
aF0.457495710997814
aF0.457495710997814
aF0.60999428133041866
aF0.5
aF0.5
aF0.5
aF0.5
aF0.56949479745149945
aF0.47457899787624952
aF0.47457899787624952
aF0.47457899787624952
aF0.68824720161168529
aF0.38235955645093628
aF0.30588764516074901
aF0.53530337903131076
aF0.46816458878452227
aF0.46816458878452227
aF0.46816458878452227
aF0.58520573598065284
aF0.5
aF0.5
aF0.5
aF0.5
aF0.43666688230468648
aF0.43666688230468648
aF0.49488913327864459
aF0.61133363522656103
aF0.5
aF0.5
aF0.5
aF0.5
aF0.46358632497276531
aF0.46358632497276531
aF0.46358632497276531
aF0.59603956067926966
aF0.46816458878452227
aF0.46816458878452227
aF0.58520573598065284
aF0.46816458878452227
aF0.57539645556875052
aF0.41099746826339323
aF0.57539645556875052
aF0.41099746826339323
aF0.5
aF0.5
aF0.5
aF0.5
aF0.48189987357505998
aF0.55074271265721142
aF0.48189987357505998
aF0.48189987357505998
aF0.5
aF0.5
aF0.5
aF0.5
aF0.457495710997814
aF0.60999428133041866
aF0.457495710997814
aF0.457495710997814
aF0.47087095579741872
aF0.40360367639778749
aF0.40360367639778749
aF0.67267279399631241
aF0.4892509742832446
aF0.4892509742832446
aF0.51052275577382045
aF0.51052275577382045
aF0.42759305524706825
aF0.6719319439596787
aF0.42759305524706825
aF0.42759305524706825
aF0.5
aF0.5
aF0.5
aF0.5
aF0.60999428133041866
aF0.457495710997814
aF0.457495710997814
aF0.457495710997814
aF0.48666426339228763
aF0.64888568452305018
aF0.32444284226152509
aF0.48666426339228763
aF0.457495710997814
aF0.457495710997814
aF0.60999428133041866
aF0.457495710997814
aF0.47352027758819076
aF0.47352027758819076
aF0.28937350297056103
aF0.68397373429405339
aF0.47457899787624952
aF0.47457899787624952
aF0.47457899787624952
aF0.56949479745149945
aF0.4484414837369684
aF0.53252426193765001
aF0.56055185467121049
aF0.4484414837369684
aF0.46354060067683006
aF0.43627350651936947
aF0.54534188314921184
aF0.54534188314921184
aF0.56546617309445069
aF0.47618204050059004
aF0.47618204050059004
aF0.47618204050059004
aF0.4492518698068122
aF0.51580770237078433
aF0.51580770237078433
aF0.51580770237078433
aF0.6546536707079772
aF0.43643578047198478
aF0.43643578047198478
aF0.43643578047198478
aF0.46017899330842221
aF0.53687549219315922
aF0.46017899330842221
aF0.53687549219315922
aF0.5
aF0.5
aF0.5
aF0.5
aF0.51532530112066466
aF0.51532530112066466
aF0.51532530112066466
aF0.45090963848058158
aF0.43643578047198478
aF0.43643578047198478
aF0.43643578047198478
aF0.6546536707079772
aF0.63245553203367588
aF0.31622776601683794
aF0.63245553203367588
aF0.31622776601683794
aF0.42954656391301288
aF0.42954656391301288
aF0.6681835438646867
aF0.42954656391301288
aF0.5
aF0.5
aF0.5
aF0.5
aF0.43643578047198478
aF0.6546536707079772
aF0.43643578047198478
aF0.43643578047198478
aF0.43759497449368367
aF0.43759497449368367
aF0.29172998299578912
aF0.72932495748947279
aF0.37152142470399274
aF0.47767040319084775
aF0.63689387092113037
aF0.47767040319084775
aF0.52849819756323313
aF0.46977617561176277
aF0.46977617561176277
aF0.52849819756323313
aF0.42954656391301288
aF0.6681835438646867
aF0.42954656391301288
aF0.42954656391301288
aF0.43643578047198478
aF0.43643578047198478
aF0.43643578047198478
aF0.6546536707079772
aF0.3779644730092272
aF0.7559289460184544
aF0.3779644730092272
aF0.3779644730092272
aF0.5
aF0.5
aF0.5
aF0.5
aF0.4595037486404901
aF0.5743796858006126
aF0.4595037486404901
aF0.49779572769386432
aF0.5
aF0.5
aF0.5
aF0.5
aF0.54554472558998102
aF0.54554472558998102
aF0.3273268353539886
aF0.54554472558998102
aF0.56949479745149945
aF0.47457899787624952
aF0.47457899787624952
aF0.47457899787624952
aF0.5
aF0.5
aF0.5
aF0.5
aF0.50901929472102225
aF0.55529377605929697
aF0.41647033204447276
aF0.50901929472102225
aF0.47457899787624952
aF0.56949479745149945
aF0.47457899787624952
aF0.47457899787624952
aF0.35805743701971643
aF0.64450338663548956
aF0.35805743701971643
aF0.57289189923154638
aF0.29172998299578912
aF0.72932495748947279
aF0.43759497449368367
aF0.43759497449368367
aF0.48418202613504197
aF0.54470477940192219
aF0.48418202613504197
aF0.48418202613504197
aF0.58321184351980426
aF0.46656947481584343
aF0.40824829046386296
aF0.52489065916782385
aF0.51847584736521268
aF0.4147806778921701
aF0.62217101683825515
aF0.4147806778921701
aF0.55436714294018963
aF0.41577535720514225
aF0.58901508937395153
aF0.41577535720514225
aF0.5
aF0.5
aF0.5
aF0.5
aF0.62861855709371217
aF0.44901325506693729
aF0.44901325506693729
aF0.44901325506693729
aF0.63372425052447789
aF0.50697940041958234
aF0.38023455031468678
aF0.44360697536713456
aF0.404145188432738
aF0.63508529610858833
aF0.404145188432738
aF0.51961524227066314
aF0.56568542494923801
aF0.42426406871192851
aF0.56568542494923801
aF0.42426406871192851
aF0.61146856444933817
aF0.42332439077261874
aF0.42332439077261874
aF0.51739647761097851
aF0.56568542494923801
aF0.42426406871192851
aF0.42426406871192851
aF0.56568542494923801
aF0.62217101683825515
aF0.4147806778921701
aF0.51847584736521268
aF0.4147806778921701
aF0.3692744729379982
aF0.61545745489666359
aF0.4923659639173309
aF0.4923659639173309
aF0.44112877325628463
aF0.44112877325628463
aF0.58817169767504618
aF0.51465023546566535
aF0.388954920792207
aF0.388954920792207
aF0.388954920792207
aF0.7390143495051934
aF0.60999428133041866
aF0.457495710997814
aF0.457495710997814
aF0.457495710997814
aF0.48666426339228763
aF0.48666426339228763
aF0.64888568452305018
aF0.32444284226152509
aF0.41602514716892186
aF0.41602514716892186
aF0.69337524528153649
aF0.41602514716892186
aF0.39223227027636809
aF0.58834840541455213
aF0.39223227027636809
aF0.58834840541455213
aF0.404145188432738
aF0.51961524227066314
aF0.63508529610858833
aF0.404145188432738
aF0.5
aF0.5
aF0.5
aF0.5
aF0.57735026918962573
aF0.57735026918962573
aF0.46188021535170054
aF0.34641016151377541
aF0.5
aF0.5
aF0.5
aF0.5
aF0.4950737714883372
aF0.4950737714883372
aF0.59408852578600457
aF0.39605901719066977
aF0.5
aF0.5
aF0.5
aF0.5
aF0.5
aF0.5
aF0.5
aF0.5
aF0.46977617561176277
aF0.46977617561176277
aF0.52849819756323313
aF0.52849819756323313
aF0.3141021657418992
aF0.41880288765586565
aF0.48860336893184325
aF0.69800481275977611
aF0.44543540318737396
aF0.53452248382484879
aF0.62360956446232352
aF0.35634832254989918
aF0.43643578047198478
aF0.6546536707079772
aF0.43643578047198478
aF0.43643578047198478
aF0.4673827146373169
aF0.49854156227980467
aF0.4673827146373169
aF0.56085925756478028
aF0.48507125007266594
aF0.48507125007266594
aF0.43656412506539932
aF0.58208550008719906
aF0.41602514716892186
aF0.69337524528153649
aF0.41602514716892186
aF0.41602514716892186
aF0.44901325506693729
aF0.62861855709371217
aF0.44901325506693729
aF0.44901325506693729
aF0.4923659639173309
aF0.4923659639173309
aF0.61545745489666359
aF0.3692744729379982
aF0.51300769517314182
aF0.45600684015390386
aF0.60800912020520514
aF0.3990059851346659
aF0.37011660509880262
aF0.33310494458892237
aF0.66620988917784474
aF0.55517490764820387
aF0.5
aF0.5
aF0.5
aF0.5
aF0.6871180011766419
aF0.28629916715693415
aF0.57259833431386831
aF0.34355900058832095
aF0.40061251514962809
aF0.5508422083307386
aF0.50076564393703515
aF0.53415002019950408
aF0.63869555449481941
aF0.42579703632987959
aF0.47902166587111455
aF0.42579703632987959
aF0.6579497414185822
aF0.41426465200429241
aF0.5117386877700083
aF0.36552763412143452
aF0.37630890450319082
aF0.37630890450319082
aF0.71080570850602709
aF0.45993310550389993
aF0.457495710997814
aF0.457495710997814
aF0.457495710997814
aF0.60999428133041866
aF0.43643578047198478
aF0.6546536707079772
aF0.43643578047198478
aF0.43643578047198478
aF0.55470019622522915
aF0.55470019622522915
aF0.27735009811261457
aF0.55470019622522915
aF0.5
aF0.5
aF0.5
aF0.5
aF0.43643578047198478
aF0.6546536707079772
aF0.43643578047198478
aF0.43643578047198478
aF0.43643578047198478
aF0.6546536707079772
aF0.43643578047198478
aF0.43643578047198478
aF0.457495710997814
aF0.457495710997814
aF0.457495710997814
aF0.60999428133041866
aF0.51555829389165342
aF0.72178161144831487
aF0.32652025279804719
aF0.32652025279804719
aF0.39056673294247163
aF0.6509445549041194
aF0.39056673294247163
aF0.52075564392329554
aF0.47172817652486326
aF0.57655666019705509
aF0.47172817652486326
aF0.47172817652486326
aF0.28643096146990227
aF0.59332127733051188
aF0.53194321415839008
aF0.53194321415838997
aF0.52849819756323313
aF0.46977617561176277
aF0.46977617561176277
aF0.52849819756323313
aF0.49100143668232604
aF0.49100143668232604
aF0.52607296787392077
aF0.49100143668232604
aF0.56046979762699489
aF0.43113061355922683
aF0.43113061355922683
aF0.56046979762699489
aF0.62360956446232352
aF0.35634832254989918
aF0.44543540318737396
aF0.53452248382484879
aF0.54879547245602833
aF0.54879547245602833
aF0.44589632137052299
aF0.44589632137052299
aF0.3880752628531664
aF0.3880752628531664
aF0.77615052570633281
aF0.31046021028253312
aF0.51231551957855992
aF0.51231551957855992
aF0.51231551957855992
aF0.46108396762070392
aF0.7559289460184544
aF0.3779644730092272
aF0.3779644730092272
aF0.3779644730092272
aF0.3779644730092272
aF0.3779644730092272
aF0.3779644730092272
aF0.7559289460184544
aF0.5
aF0.5
aF0.5
aF0.5
aF0.34641016151377541
aF0.46188021535170054
aF0.57735026918962573
aF0.57735026918962573
aF0.62175676083864362
aF0.45218673515537722
aF0.45218673515537722
aF0.45218673515537722
aF0.49473705528840467
aF0.52771952564096491
aF0.52771952564096491
aF0.44526334975956416
aF0.43412157106222965
aF0.55815630565143803
aF0.43412157106222965
aF0.55815630565143803
aF0.5
aF0.5
aF0.5
aF0.5
aF0.41731242476584085
aF0.70421471679235648
aF0.36514837167011077
aF0.44339445131370592
aF0.46358632497276531
aF0.46358632497276531
aF0.46358632497276531
aF0.59603956067926966
aF0.59041642024572338
aF0.3041539134599181
aF0.26837110011169246
aF0.6977648602904003
aF0.37373678805410593
aF0.6581017354865778
aF0.53623104372980412
aF0.37373678805410587
aF0.443903510795715
aF0.50555677618400874
aF0.59187134772761996
aF0.443903510795715
aF0.43617837214497929
aF0.51548353071679365
aF0.43617837214497929
aF0.59478868928860806
a.