(lp1
F0.5
aF0.5
aF0.5
aF0.5
aF0.64993368361968151
aF0.64993368361968151
aF0.27854300726557779
aF0.27854300726557779
aF0.39223227027636809
aF0.58834840541455213
aF0.58834840541455213
aF0.39223227027636809
aF0.5
aF0.5
aF0.5
aF0.5
aF0.30860669992418382
aF0.77151674981045948
aF0.30860669992418382
aF0.46291004988627571
aF0.6509445549041194
aF0.39056673294247163
aF0.39056673294247163
aF0.52075564392329554
aF0.37628834735343891
aF0.5644325210301584
aF0.5644325210301584
aF0.47036043419179863
aF0.27122540144832413
aF0.30512857662936466
aF0.77977302916393187
aF0.47464445253456722
aF0.45674945560314612
aF0.58996804682073034
aF0.5709368195039326
aF0.34256209170235957
aF0.58446185699094555
aF0.41747275499353254
aF0.55663033999137668
aF0.41747275499353254
aF0.43133109281375365
aF0.64699663922063044
aF0.53916386601719202
aF0.32349831961031522
aF0.51840001354187815
aF0.4937142986113125
aF0.4937142986113125
aF0.4937142986113125
aF0.72231511851461516
aF0.1203858530857692
aF0.48154341234307679
aF0.48154341234307679
aF0.23570226039551587
aF0.47140452079103173
aF0.70710678118654757
aF0.47140452079103173
aF0.2581988897471611
aF0.5163977794943222
aF0.7745966692414834
aF0.2581988897471611
aF0.53665631459994945
aF0.17888543819998318
aF0.80498447189992428
aF0.17888543819998318
aF0.5
aF0.5
aF0.5
aF0.5
aF0.4758309514308865
aF0.55513611000270091
aF0.55513611000270091
aF0.39652579285907208
aF0.4147806778921701
aF0.51847584736521268
aF0.62217101683825515
aF0.4147806778921701
aF0.6546536707079772
aF0.43643578047198478
aF0.43643578047198478
aF0.43643578047198478
aF0.20739033894608505
aF0.20739033894608505
aF0.20739033894608505
aF0.93325652525738279
aF0.5
aF0.5
aF0.5
aF0.5
aF0.31622776601683794
aF0.63245553203367588
aF0.31622776601683794
aF0.63245553203367588
aF0.44901325506693729
aF0.44901325506693729
aF0.62861855709371217
aF0.44901325506693729
aF0.3553711577967667
aF0.3553711577967667
aF0.65997500733685244
aF0.55844039082349051
aF0.36293309315564887
aF0.57032343210173386
aF0.46662826262869139
aF0.57032343210173386
aF0.66212219197173061
aF0.5417363388859614
aF0.42135048580019219
aF0.30096463271442297
aF0.5
aF0.5
aF0.5
aF0.5
aF0.44172610429938614
aF0.44172610429938614
aF0.55215763037423271
aF0.55215763037423271
aF0.47885213068057331
aF0.55866081912733556
aF0.47885213068057331
aF0.47885213068057331
aF0.80295506854696608
aF0.34412360080584259
aF0.34412360080584259
aF0.34412360080584259
aF0.6546536707079772
aF0.43643578047198478
aF0.43643578047198478
aF0.43643578047198478
aF0.31622776601683794
aF0.63245553203367588
aF0.31622776601683794
aF0.63245553203367588
aF0.72760687510899891
aF0
aF0.48507125007266594
aF0.48507125007266594
aF0
aF0.89442719099991586
aF0
aF0.44721359549995793
aF0
aF0
aF0.44721359549995793
aF0.89442719099991586
aF0.5
aF0.5
aF0.5
aF0.5
aF0.3779644730092272
aF0.3779644730092272
aF0.3779644730092272
aF0.7559289460184544
aF0.59408852578600457
aF0.4950737714883372
aF0.39605901719066977
aF0.4950737714883372
aF0.7559289460184544
aF0.3779644730092272
aF0.3779644730092272
aF0.3779644730092272
aF0.62861855709371217
aF0.44901325506693729
aF0.44901325506693729
aF0.44901325506693729
aF0.36380343755449945
aF0.60633906259083248
aF0.60633906259083248
aF0.36380343755449945
aF0.44537266138789561
aF0.58241040335340188
aF0.51389153237064877
aF0.44537266138789561
aF0.457495710997814
aF0.457495710997814
aF0.457495710997814
aF0.60999428133041866
aF0.44901325506693729
aF0.62861855709371217
aF0.44901325506693729
aF0.44901325506693729
aF0.44901325506693729
aF0.44901325506693729
aF0.44901325506693729
aF0.62861855709371217
aF0.62217101683825515
aF0.51847584736521268
aF0.4147806778921701
aF0.4147806778921701
aF0.39735970711951313
aF0.52981294282601754
aF0.52981294282601754
aF0.52981294282601754
aF0.63245553203367588
aF0.63245553203367588
aF0.31622776601683794
aF0.31622776601683794
aF0.51847584736521268
aF0.4147806778921701
aF0.62217101683825515
aF0.4147806778921701
aF0.5
aF0.5
aF0.5
aF0.5
aF0.5388159060803247
aF0.5388159060803247
aF0.5388159060803247
aF0.35921060405354982
aF0.5
aF0.5
aF0.5
aF0.5
aF0.46816458878452227
aF0.46816458878452227
aF0.46816458878452227
aF0.58520573598065284
aF0.35623524993954825
aF0.4274822999274579
aF0.7124704998790965
aF0.4274822999274579
aF0.55410851584753218
aF0.27705425792376609
aF0.36940567723168805
aF0.6926356448094152
aF0.5
aF0.5
aF0.5
aF0.5
aF0.3779644730092272
aF0.3779644730092272
aF0.3779644730092272
aF0.7559289460184544
aF0.69631062382279141
aF0.3481553119113957
aF0.3481553119113957
aF0.5222329678670935
aF0.3779644730092272
aF0.7559289460184544
aF0.3779644730092272
aF0.3779644730092272
aF0.44112877325628463
aF0.51465023546566535
aF0.58817169767504618
aF0.44112877325628463
aF0.57932412202165751
aF0.49656353316142077
aF0.49656353316142077
aF0.41380294430118397
aF0.4923659639173309
aF0.3692744729379982
aF0.4923659639173309
aF0.61545745489666359
aF0.43643578047198478
aF0.43643578047198478
aF0.43643578047198478
aF0.6546536707079772
aF0.69631062382279141
aF0.3481553119113957
aF0.3481553119113957
aF0.5222329678670935
aF0.43643578047198478
aF0.43643578047198478
aF0.6546536707079772
aF0.43643578047198478
aF0.46816458878452227
aF0.46816458878452227
aF0.46816458878452227
aF0.58520573598065284
aF0.3481553119113957
aF0.69631062382279141
aF0.3481553119113957
aF0.5222329678670935
aF0.48666426339228763
aF0.32444284226152509
aF0.64888568452305018
aF0.48666426339228763
aF0.34174306308670438
aF0.51261459463005654
aF0.59805036040173265
aF0.51261459463005654
aF0.5
aF0.5
aF0.5
aF0.5
aF0.50529115263991142
aF0.67372153685321523
aF0.33686076842660762
aF0.42107596053325946
aF0.62217101683825515
aF0.51847584736521268
aF0.4147806778921701
aF0.4147806778921701
aF0.39056673294247163
aF0.6509445549041194
aF0.39056673294247163
aF0.52075564392329554
aF0.3273268353539886
aF0.54554472558998102
aF0.54554472558998102
aF0.54554472558998102
aF0.43273106758477126
aF0.43273106758477126
aF0.57697475677969512
aF0.54091383448096408
aF0.58616064812325253
aF0.42333824586679358
aF0.4884672067693771
aF0.4884672067693771
aF0.47885213068057331
aF0.47885213068057331
aF0.55866081912733556
aF0.47885213068057331
aF0.57498890849994588
aF0.51110125199995193
aF0.38332593899996392
aF0.51110125199995193
aF0.46358632497276531
aF0.59603956067926966
aF0.46358632497276531
aF0.46358632497276531
aF0.5
aF0.5
aF0.5
aF0.5
aF0.35260519008276292
aF0.45334953010640949
aF0.35260519008276292
aF0.73879182684007483
aF0.54828231499157021
aF0.6266083599903659
aF0.3916302249939787
aF0.3916302249939787
aF0.4147806778921701
aF0.62217101683825515
aF0.51847584736521268
aF0.4147806778921701
aF0.36178730264621084
aF0.50650222370469511
aF0.65121714476317949
aF0.43414476317545297
aF0.5
aF0.5
aF0.5
aF0.5
aF0.42954656391301288
aF0.42954656391301288
aF0.42954656391301288
aF0.6681835438646867
aF0.62861855709371217
aF0.44901325506693729
aF0.44901325506693729
aF0.44901325506693729
aF0.58520573598065284
aF0.46816458878452227
aF0.46816458878452227
aF0.46816458878452227
aF0.49393916995360654
aF0.60370342994329684
aF0.38417490996391618
aF0.49393916995360654
aF0.42426406871192851
aF0.56568542494923801
aF0.56568542494923801
aF0.42426406871192851
aF0.46662826262869139
aF0.57032343210173386
aF0.36293309315564887
aF0.57032343210173386
aF0.3779644730092272
aF0.3779644730092272
aF0.3779644730092272
aF0.7559289460184544
aF0.43643578047198478
aF0.43643578047198478
aF0.43643578047198478
aF0.6546536707079772
aF0.17496355305594127
aF0.64153302787178468
aF0.46656947481584343
aF0.58321184351980426
aF0.71713716560063623
aF0.35856858280031811
aF0.35856858280031811
aF0.47809144373375745
aF0.5
aF0.5
aF0.5
aF0.5
aF0.28867513459481292
aF0.86602540378443871
aF0.28867513459481292
aF0.28867513459481292
aF0.5
aF0.5
aF0.5
aF0.5
aF0.5388159060803247
aF0.5388159060803247
aF0.5388159060803247
aF0.35921060405354982
aF0.44901325506693729
aF0.44901325506693729
aF0.62861855709371217
aF0.44901325506693729
aF0.38938059873837377
aF0.59705025139883972
aF0.44129801190349027
aF0.54513283823372327
aF0.52668516238258756
aF0.52668516238258756
aF0.52668516238258756
aF0.40964401518645699
aF0.46816458878452227
aF0.46816458878452227
aF0.58520573598065284
aF0.46816458878452227
aF0.1147078669352809
aF0.5735393346764045
aF0.80295506854696619
aF0.1147078669352809
aF0.5
aF0.5
aF0.5
aF0.5
aF0.44539933408304444
aF0.44539933408304444
aF0.44539933408304444
aF0.63628476297577774
aF0.43412157106222965
aF0.55815630565143803
aF0.43412157106222965
aF0.55815630565143803
aF0.5
aF0.5
aF0.5
aF0.5
aF0.31622776601683794
aF0.63245553203367588
aF0.63245553203367588
aF0.31622776601683794
aF0.44112877325628463
aF0.44112877325628463
aF0.51465023546566535
aF0.58817169767504618
aF0.43643578047198478
aF0.43643578047198478
aF0.6546536707079772
aF0.43643578047198478
aF0.5
aF0.5
aF0.5
aF0.5
aF0.46816458878452227
aF0.46816458878452227
aF0.58520573598065284
aF0.46816458878452227
aF0.58834840541455213
aF0.39223227027636809
aF0.39223227027636809
aF0.58834840541455213
aF0.3779644730092272
aF0.3779644730092272
aF0.3779644730092272
aF0.7559289460184544
aF0.6546536707079772
aF0.43643578047198478
aF0.43643578047198478
aF0.43643578047198478
aF0.47140452079103173
aF0.47140452079103173
aF0.23570226039551587
aF0.70710678118654757
aF0.5
aF0.5
aF0.5
aF0.5
aF0.457495710997814
aF0.457495710997814
aF0.457495710997814
aF0.60999428133041866
aF0.52981294282601754
aF0.39735970711951313
aF0.52981294282601754
aF0.52981294282601754
aF0.5
aF0.5
aF0.5
aF0.5
aF0.5388159060803247
aF0.41907903806247476
aF0.59868434008924964
aF0.41907903806247476
aF0.23570226039551587
aF0.47140452079103173
aF0.70710678118654757
aF0.47140452079103173
aF0.46816458878452227
aF0.58520573598065284
aF0.46816458878452227
aF0.46816458878452227
aF0.55470019622522915
aF0.27735009811261457
aF0.55470019622522915
aF0.55470019622522915
aF0.57539645556875052
aF0.73979544287410781
aF0.24659848095803594
aF0.24659848095803594
aF0.82807867121082512
aF0.34503277967117713
aF0.27602622373694169
aF0.34503277967117713
aF0.33282011773513748
aF0.49923017660270624
aF0.44376015698018328
aF0.66564023547027495
aF0.56361877755993217
aF0.56361877755993217
aF0.36232635700281351
aF0.48310180933708469
aF0.42839304295347319
aF0.30599503068105227
aF0.42839304295347319
aF0.73438807363452552
aF0.457495710997814
aF0.457495710997814
aF0.457495710997814
aF0.60999428133041866
aF0.457495710997814
aF0.457495710997814
aF0.60999428133041866
aF0.457495710997814
aF0.44721359549995793
aF0.59628479399994394
aF0.29814239699997197
aF0.59628479399994394
aF0.41602514716892186
aF0.69337524528153649
aF0.41602514716892186
aF0.41602514716892186
aF0.457495710997814
aF0.60999428133041866
aF0.457495710997814
aF0.457495710997814
aF0.26425821129084498
aF0.42281313806535192
aF0.52851642258168996
aF0.68707134935619696
aF0.42215852683817512
aF0.63323779025726268
aF0.42215852683817512
aF0.49251828131120434
aF0.65894652766046913
aF0.33945730212812047
aF0.33945730212812047
aF0.57907422127738195
aF0.46816458878452227
aF0.46816458878452227
aF0.58520573598065284
aF0.46816458878452227
aF0.52981294282601754
aF0.39735970711951313
aF0.52981294282601754
aF0.52981294282601754
aF0.71971217268488064
aF0.41983210073284705
aF0.35985608634244032
aF0.41983210073284705
aF0.55215763037423271
aF0.44172610429938614
aF0.44172610429938614
aF0.55215763037423271
aF0.39735970711951313
aF0.52981294282601754
aF0.52981294282601754
aF0.52981294282601754
aF0.44112877325628463
aF0.44112877325628463
aF0.51465023546566535
aF0.58817169767504618
aF0.43643578047198478
aF0.6546536707079772
aF0.43643578047198478
aF0.43643578047198478
aF0.43643578047198478
aF0.43643578047198478
aF0.43643578047198478
aF0.6546536707079772
aF0.5
aF0.5
aF0.5
aF0.5
aF0.69999999999999996
aF0.10000000000000001
aF0.5
aF0.5
aF0.5
aF0.5
aF0.5
aF0.5
aF0.5
aF0.5
aF0.5
aF0.5
aF0.48512062370504716
aF0.54219363825858213
aF0.48512062370504716
aF0.48512062370504716
aF0.6092717958449424
aF0.6092717958449424
aF0.26111648393354675
aF0.4351941398892446
aF0.42759305524706825
aF0.42759305524706825
aF0.42759305524706825
aF0.6719319439596787
aF0.71713716560063612
aF0.35856858280031806
aF0.47809144373375745
aF0.35856858280031806
aF0.58585009941370747
aF0.3254722774520597
aF0.45566118843288356
aF0.58585009941370747
aF0.46816458878452227
aF0.58520573598065284
aF0.46816458878452227
aF0.46816458878452227
aF0.3779644730092272
aF0.7559289460184544
aF0.3779644730092272
aF0.3779644730092272
aF0.43643578047198478
aF0.43643578047198478
aF0.6546536707079772
aF0.43643578047198478
aF0.48507125007266588
aF0.58208550008719917
aF0.48507125007266594
aF0.43656412506539932
aF0.62279915532921837
aF0.54494926091306606
aF0.31139957766460918
aF0.46709936649691375
aF0.43643578047198478
aF0.43643578047198478
aF0.6546536707079772
aF0.43643578047198478
aF0.48304589153964794
aF0.41403933560541256
aF0.34503277967117713
aF0.69006555934235425
aF0.5
aF0.5
aF0.5
aF0.5
aF0.5
aF0.5
aF0.5
aF0.5
aF0.457495710997814
aF0.457495710997814
aF0.60999428133041866
aF0.457495710997814
aF0.52981294282601754
aF0.52981294282601754
aF0.52981294282601754
aF0.39735970711951313
aF0.5
aF0.5
aF0.5
aF0.5
aF0.5
aF0.5
aF0.5
aF0.5
aF0.5388159060803247
aF0.5388159060803247
aF0.35921060405354982
aF0.5388159060803247
aF0.457495710997814
aF0.60999428133041866
aF0.457495710997814
aF0.457495710997814
aF0.55401652192813089
aF0.43939241394300033
aF0.43939241394300033
aF0.55401652192813089
aF0.39735970711951313
aF0.52981294282601754
aF0.52981294282601754
aF0.52981294282601754
aF0.46175709653961011
aF0.46175709653961011
aF0.60028422550149318
aF0.46175709653961011
aF0.44901325506693729
aF0.62861855709371217
aF0.44901325506693729
aF0.44901325506693729
aF0.43643578047198478
aF0.43643578047198478
aF0.6546536707079772
aF0.43643578047198478
aF0.5
aF0.5
aF0.5
aF0.5
aF0.43643578047198478
aF0.6546536707079772
aF0.43643578047198478
aF0.43643578047198478
aF0.36765801200722315
aF0.36765801200722315
aF0.60400959115472375
aF0.60400959115472375
aF0.47885213068057331
aF0.55866081912733556
aF0.47885213068057331
aF0.47885213068057331
aF0.41602514716892181
aF0.60092521257733156
aF0.32357511446471698
aF0.60092521257733156
aF0.54307538664170452
aF0.40730653998127841
aF0.40730653998127841
aF0.61095980997191768
aF0.69337524528153649
aF0.41602514716892186
aF0.41602514716892186
aF0.41602514716892186
aF0.5383819020581655
aF0.5383819020581655
aF0.48454371185234896
aF0.43070552164653242
aF0.26334358773518363
aF0.87467691640614575
aF0.338584612802379
aF0.22572307520158599
aF0.70014004201400482
aF0.42008402520840293
aF0.56011203361120387
aF0.14002800840280097
aF0.23693955110363693
aF0.71081865331091076
aF0.59234887775909228
aF0.29617443887954614
aF0.37931034482758619
aF0.27586206896551724
aF0.55172413793103448
aF0.68965517241379315
aF0.4923659639173309
aF0.61545745489666359
aF0.3692744729379982
aF0.4923659639173309
aF0.57539645556875052
aF0.57539645556875052
aF0.41099746826339323
aF0.41099746826339323
aF0.5
aF0.5
aF0.5
aF0.5
aF0.5
aF0.5
aF0.5
aF0.5
aF0.35921060405354982
aF0.5388159060803247
aF0.5388159060803247
aF0.5388159060803247
aF0.5
aF0.5
aF0.5
aF0.5
aF0.43643578047198478
aF0.6546536707079772
aF0.43643578047198478
aF0.43643578047198478
aF0.43580096445528327
aF0.5603155257282213
aF0.49805824509175228
aF0.49805824509175228
aF0.59603956067926966
aF0.46358632497276531
aF0.46358632497276531
aF0.46358632497276531
aF0.4147806778921701
aF0.4147806778921701
aF0.62217101683825515
aF0.51847584736521268
aF0.457495710997814
aF0.457495710997814
aF0.60999428133041866
aF0.457495710997814
aF0.62861855709371217
aF0.44901325506693729
aF0.44901325506693729
aF0.44901325506693729
aF0.61394061351492046
aF0.35082320772281173
aF0.35082320772281173
aF0.61394061351492046
aF0.36363636363636365
aF0.45454545454545453
aF0.72727272727272729
aF0.36363636363636365
aF0.5
aF0.5
aF0.5
aF0.5
aF0.5
aF0.5
aF0.5
aF0.5
aF0.55470019622522904
aF0.64715022892943397
aF0.36980013081681939
aF0.36980013081681939
aF0.41602514716892186
aF0.41602514716892186
aF0.41602514716892186
aF0.69337524528153649
aF0.58834840541455213
aF0.39223227027636809
aF0.39223227027636809
aF0.58834840541455213
aF0.48666426339228763
aF0.32444284226152509
aF0.48666426339228763
aF0.64888568452305018
aF0.43643578047198478
aF0.43643578047198478
aF0.43643578047198478
aF0.6546536707079772
aF0.55470019622522915
aF0.27735009811261457
aF0.55470019622522915
aF0.55470019622522915
aF0.43643578047198478
aF0.43643578047198478
aF0.43643578047198478
aF0.6546536707079772
aF0.47140452079103173
aF0.47140452079103173
aF0.70710678118654757
aF0.23570226039551587
aF0.60999428133041866
aF0.457495710997814
aF0.457495710997814
aF0.457495710997814
aF0.47457899787624952
aF0.56949479745149945
aF0.47457899787624952
aF0.47457899787624952
aF0.44901325506693729
aF0.44901325506693729
aF0.62861855709371217
aF0.44901325506693729
aF0.5
aF0.5
aF0.5
aF0.5
aF0.38332593899996392
aF0.57498890849994588
aF0.51110125199995193
aF0.51110125199995193
aF0.58834840541455213
aF0.39223227027636809
aF0.39223227027636809
aF0.58834840541455213
aF0.5
aF0.5
aF0.5
aF0.5
aF0.77005354108682
aF0.23693955110363693
aF0.35540932665545538
aF0.47387910220727386
aF0.3254722774520597
aF0.58585009941370747
aF0.58585009941370747
aF0.45566118843288356
aF0.2705653429471665
aF0.40584801442074975
aF0.8116960288414995
aF0.32129634474976021
aF0.6509445549041194
aF0.39056673294247163
aF0.52075564392329554
aF0.39056673294247163
aF0.53156439534807631
aF0.43189607122031204
aF0.49834162063882159
aF0.53156439534807631
aF0.7559289460184544
aF0.3779644730092272
aF0.3779644730092272
aF0.3779644730092272
aF0.41602514716892186
aF0.69337524528153649
aF0.41602514716892186
aF0.41602514716892186
aF0.5
aF0.5
aF0.5
aF0.5
aF0.34412360080584259
aF0.34412360080584259
aF0.80295506854696608
aF0.34412360080584259
aF0.32444284226152509
aF0.48666426339228763
aF0.48666426339228763
aF0.64888568452305018
aF0.38714713479666185
aF0.53232731034541003
aF0.53232731034541003
aF0.53232731034541003
aF0.3779644730092272
aF0.25197631533948484
aF0.88191710368819687
aF0.12598815766974242
aF0.53528772757218923
aF0.53528772757218923
aF0.37470140930053247
aF0.53528772757218923
aF0.5
aF0.5
aF0.5
aF0.5
aF0.457495710997814
aF0.60999428133041866
aF0.457495710997814
aF0.457495710997814
aF0.63245553203367588
aF0.31622776601683794
aF0.31622776601683794
aF0.63245553203367588
aF0.43643578047198478
aF0.43643578047198478
aF0.43643578047198478
aF0.6546536707079772
aF0.62217101683825515
aF0.51847584736521268
aF0.4147806778921701
aF0.4147806778921701
aF0.7559289460184544
aF0.3779644730092272
aF0.3779644730092272
aF0.3779644730092272
aF0.58834840541455213
aF0.39223227027636809
aF0.58834840541455213
aF0.39223227027636809
aF0.59628479399994394
aF0.59628479399994394
aF0.44721359549995793
aF0.29814239699997197
aF0.39056673294247163
aF0.6509445549041194
aF0.39056673294247163
aF0.52075564392329554
aF0.46816458878452227
aF0.46816458878452227
aF0.58520573598065284
aF0.46816458878452227
aF0.42759305524706825
aF0.42759305524706825
aF0.42759305524706825
aF0.6719319439596787
aF0.47031708100177233
aF0.50951017108525332
aF0.50951017108525332
aF0.50951017108525332
aF0.40032038451271784
aF0.40032038451271784
aF0.7205766921228921
aF0.40032038451271784
aF0.30860669992418382
aF0.30860669992418382
aF0.46291004988627571
aF0.77151674981045948
aF0.43643578047198478
aF0.6546536707079772
aF0.43643578047198478
aF0.43643578047198478
aF0.5
aF0.5
aF0.5
aF0.5
aF0.46077278325541832
aF0.46077278325541832
aF0.60254902425708545
aF0.46077278325541832
aF0.39735970711951313
aF0.52981294282601754
aF0.52981294282601754
aF0.52981294282601754
aF0.60999428133041866
aF0.457495710997814
aF0.457495710997814
aF0.457495710997814
aF0.457495710997814
aF0.60999428133041866
aF0.457495710997814
aF0.457495710997814
aF0.457495710997814
aF0.60999428133041866
aF0.457495710997814
aF0.457495710997814
aF0.43643578047198478
aF0.43643578047198478
aF0.43643578047198478
aF0.6546536707079772
aF0.55470019622522915
aF0.27735009811261457
aF0.55470019622522915
aF0.55470019622522915
aF0.60999428133041866
aF0.457495710997814
aF0.457495710997814
aF0.457495710997814
aF0.5
aF0.5
aF0.5
aF0.5
aF0.56568542494923801
aF0.56568542494923801
aF0.42426406871192851
aF0.42426406871192851
aF0.3481553119113957
aF0.3481553119113957
aF0.69631062382279141
aF0.5222329678670935
aF0.3481553119113957
aF0.3481553119113957
aF0.5222329678670935
aF0.69631062382279141
aF0.46816458878452227
aF0.46816458878452227
aF0.46816458878452227
aF0.58520573598065284
aF0.46816458878452227
aF0.46816458878452227
aF0.46816458878452227
aF0.58520573598065284
aF0.5
aF0.5
aF0.5
aF0.5
aF0.5
aF0.5
aF0.5
aF0.5
aF0.61558088670801758
aF0.45499456843636082
aF0.45499456843636082
aF0.45499456843636082
aF0.47286624374346037
aF0.63048832499128049
aF0.47286624374346037
aF0.39405520311955033
aF0.42712109808862458
aF0.52203689766387451
aF0.52203689766387451
aF0.52203689766387451
aF0.80295506854696608
aF0.34412360080584259
aF0.34412360080584259
aF0.34412360080584259
aF0.45584230583855179
aF0.68376345875782774
aF0.45584230583855179
aF0.34188172937891387
aF0.33282011773513748
aF0.66564023547027495
aF0.49923017660270624
aF0.44376015698018328
aF0.5
aF0.5
aF0.5
aF0.5
aF0.5
aF0.5
aF0.5
aF0.5
aF0.37210420376762537
aF0.49613893835683387
aF0.24806946917841693
aF0.74420840753525075
aF0.48666426339228763
aF0.32444284226152509
aF0.64888568452305018
aF0.48666426339228763
aF0.35921060405354982
aF0.5388159060803247
aF0.5388159060803247
aF0.5388159060803247
aF0.47963209687927216
aF0.54815096786202533
aF0.54815096786202533
aF0.411113225896519
aF0.5388159060803247
aF0.35921060405354982
aF0.5388159060803247
aF0.5388159060803247
aF0.64643778602810009
aF0.39178047638066676
aF0.50931461929486677
aF0.41136950019970009
aF0.42058923768827677
aF0.48067341450088774
aF0.48067341450088774
aF0.60084176812610968
aF0.26436307295072103
aF0.41123144681223261
aF0.61684717021834901
aF0.61684717021834901
aF0.31046021028253312
aF0.3880752628531664
aF0.3880752628531664
aF0.77615052570633281
aF0.39223227027636809
aF0.58834840541455213
aF0.39223227027636809
aF0.58834840541455213
aF0.56582515211573836
aF0.62869461346193145
aF0.37721676807715887
aF0.37721676807715887
aF0.50329619952129112
aF0.50329619952129112
aF0.45296657956916203
aF0.53684927948937722
aF0.5430364606919974
aF0.5430364606919974
aF0.43442916855359798
aF0.47063159926639775
aF0.59628479399994394
aF0.44721359549995793
aF0.59628479399994394
aF0.29814239699997197
aF0.5
aF0.5
aF0.5
aF0.5
aF0.5
aF0.5
aF0.5
aF0.5
aF0.5
aF0.5
aF0.5
aF0.5
aF0.6546536707079772
aF0.43643578047198478
aF0.43643578047198478
aF0.43643578047198478
aF0.5
aF0.5
aF0.5
aF0.5
aF0.5
aF0.5
aF0.5
aF0.5
aF0.3779644730092272
aF0.3779644730092272
aF0.3779644730092272
aF0.7559289460184544
aF0.2581988897471611
aF0.5163977794943222
aF0.2581988897471611
aF0.7745966692414834
aF0.23570226039551587
aF0.47140452079103173
aF0.47140452079103173
aF0.70710678118654757
aF0.5
aF0.5
aF0.5
aF0.5
aF0.6059634837328064
aF0.4894320445534206
aF0.46612575671754342
aF0.41951318104578905
aF0.43079324749337655
aF0.43079324749337655
aF0.66577138248976375
aF0.43079324749337655
aF0.5222329678670935
aF0.3481553119113957
aF0.3481553119113957
aF0.69631062382279141
aF0.33047695390881104
aF0.70226352705622341
aF0.33047695390881104
aF0.53702505010181789
aF0.46816458878452227
aF0.58520573598065284
aF0.46816458878452227
aF0.46816458878452227
aF0.46816458878452227
aF0.46816458878452227
aF0.46816458878452227
aF0.58520573598065284
aF0.5758526005989556
aF0.2879263002994778
aF0.50387102552408625
aF0.5758526005989556
aF0.5
aF0.5
aF0.5
aF0.5
aF0.16169041669088866
aF0.16169041669088866
aF0.72760687510899902
aF0.64676166676355462
aF0.5388159060803247
aF0.5388159060803247
aF0.5388159060803247
aF0.35921060405354982
aF0.44992127066584753
aF0.53990552479901699
aF0.58489765186560183
aF0.4049291435992628
aF0.59525684259940881
aF0.31747031605301801
aF0.4365216845728998
aF0.59525684259940881
aF0.16666666666666666
aF0.83333333333333337
aF0.16666666666666666
aF0.5
aF0.25175440748900674
aF0.33567254331867563
aF0.75526322246702016
aF0.50350881497801347
aF0.3779644730092272
aF0.3779644730092272
aF0.7559289460184544
aF0.3779644730092272
aF0.31622776601683794
aF0.63245553203367588
aF0.31622776601683794
aF0.63245553203367588
aF0.58834840541455213
aF0.58834840541455213
aF0.39223227027636809
aF0.39223227027636809
aF0.58520573598065284
aF0.46816458878452227
aF0.46816458878452227
aF0.46816458878452227
aF0.58658846008541321
aF0.65991201759608986
aF0.36661778755338326
aF0.29329423004270661
aF0.46156633137705089
aF0.39562828403747219
aF0.59344242605620834
aF0.52750437871662958
aF0.20739033894608505
aF0.20739033894608505
aF0.72586618631129773
aF0.62217101683825515
aF0.58834840541455213
aF0.39223227027636809
aF0.39223227027636809
aF0.58834840541455213
aF0.26311740579210879
aF0.52623481158421759
aF0.52623481158421759
aF0.61394061351492046
aF0.39223227027636809
aF0.58834840541455213
aF0.39223227027636809
aF0.58834840541455213
aF0.67082039324993692
aF0.67082039324993692
aF0.22360679774997896
aF0.22360679774997896
aF0.3779644730092272
aF0.3779644730092272
aF0.7559289460184544
aF0.3779644730092272
aF0.67082039324993692
aF0.22360679774997896
aF0.22360679774997896
aF0.67082039324993692
aF0.43643578047198478
aF0.43643578047198478
aF0.6546536707079772
aF0.43643578047198478
aF0.31622776601683794
aF0.31622776601683794
aF0.63245553203367588
aF0.63245553203367588
aF0.5
aF0.5
aF0.5
aF0.5
aF0.47885213068057331
aF0.47885213068057331
aF0.55866081912733545
aF0.47885213068057331
aF0.5
aF0.5
aF0.5
aF0.5
aF0.55470019622522915
aF0.55470019622522915
aF0.55470019622522915
aF0.27735009811261457
aF0.55215763037423271
aF0.55215763037423271
aF0.44172610429938614
aF0.44172610429938614
aF0.47193990372426947
aF0.33709993123162102
aF0.74161984870956632
aF0.33709993123162102
aF0.5
aF0.5
aF0.5
aF0.5
aF0.44901325506693729
aF0.44901325506693729
aF0.44901325506693729
aF0.62861855709371217
aF0.24096579867074966
aF0.32128773156099955
aF0.88354126179274872
aF0.24096579867074966
aF0.46816458878452227
aF0.23408229439226114
aF0.81928803037291398
aF0.23408229439226114
aF0.5388159060803247
aF0.35921060405354982
aF0.5388159060803247
aF0.5388159060803247
aF0.40894436648589017
aF0.70104748540438322
aF0.46736499026958878
aF0.35052374270219161
aF0.43643578047198478
aF0.43643578047198478
aF0.6546536707079772
aF0.43643578047198478
aF0.67457852009627528
aF0.37476584449793071
aF0.44971901339751685
aF0.44971901339751685
aF0.62861855709371217
aF0.44901325506693729
aF0.44901325506693729
aF0.44901325506693729
aF0.42759305524706825
aF0.42759305524706825
aF0.6719319439596787
aF0.42759305524706825
aF0.5
aF0.5
aF0.5
aF0.5
aF0.42759305524706825
aF0.42759305524706825
aF0.42759305524706825
aF0.6719319439596787
aF0.5
aF0.5
aF0.5
aF0.5
aF0.41602514716892186
aF0.41602514716892186
aF0.41602514716892186
aF0.69337524528153649
aF0.56949479745149945
aF0.47457899787624952
aF0.47457899787624952
aF0.47457899787624952
aF0.56949479745149945
aF0.47457899787624952
aF0.47457899787624952
aF0.47457899787624952
aF0.51639777949432231
aF0.60246407607670927
aF0.43033148291193524
aF0.43033148291193524
aF0.5
aF0.5
aF0.5
aF0.5
aF0.64888568452305018
aF0.32444284226152509
aF0.48666426339228763
aF0.48666426339228763
aF0.35082320772281173
aF0.61394061351492046
aF0.35082320772281173
aF0.61394061351492046
aF0.62366303580771343
aF0.3811274107713804
aF0.27718357147009481
aF0.62366303580771343
aF0.5
aF0.5
aF0.5
aF0.5
aF0.43643578047198478
aF0.43643578047198478
aF0.6546536707079772
aF0.43643578047198478
aF0.86602540378443871
aF0.28867513459481292
aF0.28867513459481292
aF0.28867513459481292
aF0.47565149415449404
aF0.52321664356994346
aF0.52321664356994346
aF0.47565149415449404
aF0.44901325506693729
aF0.44901325506693729
aF0.62861855709371217
aF0.44901325506693729
aF0.48949020986880254
aF0.53028106069120273
aF0.48949020986880254
aF0.48949020986880254
aF0.81660769157407664
aF0.2799797799682549
aF0.41996966995238233
aF0.2799797799682549
aF0.57710985682476124
aF0.490543378301047
aF0.46168788545980899
aF0.46168788545980899
aF0.59555000038255823
aF0.49629166698546512
aF0.44666250028691867
aF0.44666250028691867
aF0.43643578047198478
aF0.6546536707079772
aF0.43643578047198478
aF0.43643578047198478
aF0.69631062382279141
aF0.3481553119113957
aF0.3481553119113957
aF0.5222329678670935
aF0.39223227027636809
aF0.39223227027636809
aF0.58834840541455213
aF0.58834840541455213
aF0.17149858514250882
aF0.8574929257125441
aF0.34299717028501764
aF0.34299717028501764
aF0.4580786674510946
aF0.51533850088248145
aF0.2290393337255473
aF0.6871180011766419
aF0.43643578047198478
aF0.43643578047198478
aF0.43643578047198478
aF0.6546536707079772
aF0.58520573598065284
aF0.46816458878452227
aF0.46816458878452227
aF0.46816458878452227
aF0.46525042788159493
aF0.46525042788159493
aF0.46525042788159493
aF0.59213690821293896
aF0.6546536707079772
aF0.43643578047198478
aF0.43643578047198478
aF0.43643578047198478
aF0.5
aF0.5
aF0.5
aF0.5
aF0.47011652789001313
aF0.47011652789001313
aF0.60070445230390568
aF0.44399894300723458
aF0.56568542494923801
aF0.42426406871192851
aF0.56568542494923801
aF0.42426406871192851
aF0.27735009811261457
aF0.55470019622522915
aF0.55470019622522915
aF0.55470019622522915
aF0.47172817652486326
aF0.47172817652486326
aF0.47172817652486326
aF0.57655666019705509
aF0.5388159060803247
aF0.35921060405354982
aF0.5388159060803247
aF0.5388159060803247
aF0.490543378301047
aF0.57710985682476124
aF0.46168788545980899
aF0.46168788545980899
aF0.5112133535741904
aF0.5112133535741904
aF0.46473941234017307
aF0.5112133535741904
aF0.5
aF0.5
aF0.5
aF0.5
aF0.4595037486404901
aF0.5743796858006126
aF0.49779572769386432
aF0.4595037486404901
aF0.27933040956366773
aF0.51875647490395438
aF0.27933040956366773
aF0.75818254024424103
aF0.43643578047198478
aF0.6546536707079772
aF0.43643578047198478
aF0.43643578047198478
aF0.30769230769230771
aF0.38461538461538464
aF0.61538461538461542
aF0.61538461538461542
aF0.43643578047198478
aF0.43643578047198478
aF0.6546536707079772
aF0.43643578047198478
aF0.44539933408304444
aF0.44539933408304444
aF0.63628476297577774
aF0.44539933408304444
aF0.457495710997814
aF0.457495710997814
aF0.457495710997814
aF0.60999428133041866
aF0.59628479399994394
aF0.44721359549995793
aF0.29814239699997197
aF0.59628479399994394
aF0.44172610429938614
aF0.55215763037423271
aF0.44172610429938614
aF0.55215763037423271
aF0.5
aF0.5
aF0.5
aF0.5
aF0.39223227027636809
aF0.58834840541455213
aF0.39223227027636809
aF0.58834840541455213
aF0.47885213068057331
aF0.47885213068057331
aF0.47885213068057331
aF0.55866081912733556
aF0.5
aF0.5
aF0.5
aF0.5
aF0.56568542494923801
aF0.42426406871192851
aF0.56568542494923801
aF0.42426406871192851
aF0.59373225077597969
aF0.42409446483998547
aF0.59373225077597969
aF0.33927557187198837
aF0.5
aF0.5
aF0.5
aF0.5
aF0.36363636363636365
aF0.45454545454545453
aF0.72727272727272729
aF0.36363636363636365
aF0.38413666267326801
aF0.38413666267326801
aF0.59366575140414146
aF0.59366575140414146
aF0.60633906259083248
aF0.36380343755449945
aF0.60633906259083248
aF0.36380343755449945
aF0.41602514716892186
aF0.41602514716892186
aF0.69337524528153649
aF0.41602514716892186
aF0.48418202613504197
aF0.48418202613504197
aF0.48418202613504197
aF0.54470477940192219
aF0.62861855709371217
aF0.44901325506693729
aF0.44901325506693729
aF0.44901325506693729
aF0.43643578047198478
aF0.6546536707079772
aF0.43643578047198478
aF0.43643578047198478
aF0.45584230583855179
aF0.68376345875782762
aF0.45584230583855179
aF0.34188172937891381
aF0.43643578047198478
aF0.6546536707079772
aF0.43643578047198478
aF0.43643578047198478
aF0.5
aF0.5
aF0.5
aF0.5
aF0.5
aF0.5
aF0.5
aF0.5
aF0.52075564392329554
aF0.39056673294247163
aF0.39056673294247163
aF0.6509445549041194
aF0.43643578047198478
aF0.43643578047198478
aF0.43643578047198478
aF0.6546536707079772
aF0.60633906259083248
aF0.60633906259083248
aF0.36380343755449945
aF0.36380343755449945
aF0.47036043419179863
aF0.5644325210301584
aF0.5644325210301584
aF0.37628834735343891
aF0.5
aF0.5
aF0.5
aF0.5
aF0.5
aF0.5
aF0.5
aF0.5
aF0.47457899787624952
aF0.47457899787624952
aF0.47457899787624952
aF0.56949479745149945
aF0.39223227027636809
aF0.58834840541455213
aF0.39223227027636809
aF0.58834840541455213
aF0.5
aF0.5
aF0.5
aF0.5
aF0.41602514716892186
aF0.69337524528153649
aF0.41602514716892186
aF0.41602514716892186
aF0.47691048323826596
aF0.47691048323826596
aF0.56362148019067793
aF0.47691048323826596
aF0.46358632497276531
aF0.59603956067926966
aF0.46358632497276531
aF0.46358632497276531
aF0.31622776601683794
aF0.63245553203367588
aF0.63245553203367588
aF0.31622776601683794
aF0.52075564392329554
aF0.6509445549041194
aF0.39056673294247163
aF0.39056673294247163
aF0.52075564392329554
aF0.6509445549041194
aF0.39056673294247163
aF0.39056673294247163
aF0.31622776601683794
aF0.31622776601683794
aF0.63245553203367588
aF0.63245553203367588
aF0.42759305524706825
aF0.42759305524706825
aF0.6719319439596787
aF0.42759305524706825
aF0.5
aF0.5
aF0.5
aF0.5
aF0.46358632497276531
aF0.59603956067926966
aF0.46358632497276531
aF0.46358632497276531
aF0.54059829899357947
aF0.36039886599571963
aF0.6693121797063365
aF0.36039886599571963
aF0.63012603781260434
aF0.4900980294098034
aF0.4900980294098034
aF0.35007002100700241
aF0.5
aF0.5
aF0.5
aF0.5
aF0.54470477940192219
aF0.48418202613504197
aF0.48418202613504197
aF0.48418202613504197
aF0.62861855709371217
aF0.44901325506693729
aF0.44901325506693729
aF0.44901325506693729
aF0.43643578047198478
aF0.6546536707079772
aF0.43643578047198478
aF0.43643578047198478
aF0.5
aF0.5
aF0.5
aF0.5
aF0.5
aF0.5
aF0.5
aF0.5
aF0.39378076532410827
aF0.73130713560191563
aF0.39378076532410827
aF0.39378076532410827
aF0.77151674981045948
aF0.30860669992418382
aF0.46291004988627571
aF0.30860669992418382
aF0.54321447625511121
aF0.54321447625511121
aF0.45267873021259264
aF0.45267873021259264
aF0.57655666019705509
aF0.47172817652486326
aF0.47172817652486326
aF0.47172817652486326
aF0.49913419848462182
aF0.45753968194423666
aF0.49913419848462182
aF0.54072871502500697
aF0.55470019622522915
aF0.27735009811261457
aF0.55470019622522915
aF0.55470019622522915
aF0.51365713098181465
aF0.51365713098181465
aF0.45658411642827967
aF0.51365713098181465
aF0.5
aF0.5
aF0.5
aF0.5
aF0.3779644730092272
aF0.3779644730092272
aF0.7559289460184544
aF0.3779644730092272
aF0.27153769332085226
aF0.27153769332085226
aF0.88249750329276977
aF0.27153769332085226
aF0.46816458878452227
aF0.46816458878452227
aF0.46816458878452227
aF0.58520573598065284
aF0.60999428133041866
aF0.457495710997814
aF0.457495710997814
aF0.457495710997814
aF0.5
aF0.5
aF0.5
aF0.5
aF0.457495710997814
aF0.457495710997814
aF0.457495710997814
aF0.60999428133041866
aF0.5
aF0.5
aF0.5
aF0.5
aF0.5
aF0.5
aF0.5
aF0.5
aF0.5
aF0.5
aF0.5
aF0.5
aF0.58834840541455213
aF0.39223227027636809
aF0.58834840541455213
aF0.39223227027636809
aF0.5
aF0.5
aF0.5
aF0.5
aF0.40613846605344767
aF0.7107423155935334
aF0.40613846605344767
aF0.40613846605344767
aF0.40360367639778749
aF0.67267279399631241
aF0.47087095579741872
aF0.40360367639778749
aF0.46358632497276531
aF0.46358632497276531
aF0.46358632497276531
aF0.59603956067926966
aF0.62123652492193671
aF0.5798207565938075
aF0.37274191495316206
aF0.37274191495316206
aF0.5
aF0.5
aF0.5
aF0.5
aF0.58834840541455213
aF0.58834840541455213
aF0.39223227027636809
aF0.39223227027636809
aF0.6404640308067906
aF0.44339817517393193
aF0.44339817517393193
aF0.44339817517393193
aF0.5
aF0.5
aF0.5
aF0.5
aF0.48797638295718176
aF0.48797638295718176
aF0.53445032419119909
aF0.48797638295718176
aF0.58520573598065284
aF0.46816458878452227
aF0.46816458878452227
aF0.46816458878452227
aF0.46816458878452227
aF0.46816458878452227
aF0.58520573598065284
aF0.46816458878452227
aF0.60999428133041866
aF0.457495710997814
aF0.457495710997814
aF0.457495710997814
aF0.62217101683825515
aF0.4147806778921701
aF0.4147806778921701
aF0.51847584736521268
aF0.32879797461071458
aF0.65759594922142917
aF0.16439898730535729
aF0.65759594922142917
aF0.48960832515056113
aF0.45194614629282565
aF0.52727050400829656
aF0.52727050400829656
aF0.3779644730092272
aF0.3779644730092272
aF0.3779644730092272
aF0.7559289460184544
aF0.5
aF0.5
aF0.5
aF0.5
aF0.5
aF0.5
aF0.5
aF0.5
aF0.5
aF0.5
aF0.5
aF0.5
aF0.44112877325628463
aF0.51465023546566535
aF0.44112877325628463
aF0.58817169767504618
aF0.67855114374397685
aF0.42409446483998547
aF0.42409446483998547
aF0.42409446483998547
aF0.54815096786202533
aF0.47963209687927216
aF0.54815096786202533
aF0.411113225896519
aF0.40360367639778749
aF0.47087095579741872
aF0.67267279399631241
aF0.40360367639778749
aF0.44901325506693729
aF0.44901325506693729
aF0.44901325506693729
aF0.62861855709371217
aF0.457495710997814
aF0.457495710997814
aF0.60999428133041866
aF0.457495710997814
aF0.91766293548224698
aF0.22941573387056174
aF0.22941573387056174
aF0.22941573387056174
aF0.5644325210301584
aF0.47036043419179863
aF0.5644325210301584
aF0.37628834735343891
aF0.58834840541455213
aF0.39223227027636809
aF0.39223227027636809
aF0.58834840541455213
aF0.457495710997814
aF0.457495710997814
aF0.60999428133041866
aF0.457495710997814
aF0.56568542494923801
aF0.42426406871192851
aF0.56568542494923801
aF0.42426406871192851
aF0.5
aF0.5
aF0.5
aF0.5
aF0.81649658092772615
aF0
aF0.40824829046386307
aF0.40824829046386307
aF0.69566559299993447
aF0.44721359549995793
aF0.39752319599996255
aF0.39752319599996255
aF0.5388159060803247
aF0.5388159060803247
aF0.5388159060803247
aF0.35921060405354982
aF0.56568542494923801
aF0.42426406871192851
aF0.42426406871192851
aF0.56568542494923801
aF0.60999428133041866
aF0.457495710997814
aF0.457495710997814
aF0.457495710997814
aF0.3779644730092272
aF0.3779644730092272
aF0.7559289460184544
aF0.3779644730092272
aF0.41099746826339323
aF0.57539645556875052
aF0.57539645556875052
aF0.41099746826339323
aF0.5082556106787729
aF0.47437190330018797
aF0.5082556106787729
aF0.5082556106787729
aF0.46954492963387634
aF0.30185031190749195
aF0.80493416508664528
aF0.20123354127166132
aF0.50709255283710997
aF0.67612340378281321
aF0.1690308509457033
aF0.50709255283710997
aF0.46358632497276531
aF0.46358632497276531
aF0.46358632497276531
aF0.59603956067926966
aF0.457495710997814
aF0.457495710997814
aF0.60999428133041866
aF0.457495710997814
aF0.63245553203367588
aF0.63245553203367588
aF0.31622776601683794
aF0.31622776601683794
aF0.55470019622522915
aF0.55470019622522915
aF0.27735009811261457
aF0.55470019622522915
aF0.58834840541455213
aF0.39223227027636809
aF0.58834840541455213
aF0.39223227027636809
aF0.55470019622522915
aF0.55470019622522915
aF0.27735009811261457
aF0.55470019622522915
aF0.46816458878452227
aF0.58520573598065284
aF0.46816458878452227
aF0.46816458878452227
aF0.4950737714883372
aF0.59408852578600457
aF0.39605901719066977
aF0.4950737714883372
aF0.48666426339228763
aF0.64888568452305018
aF0.48666426339228763
aF0.32444284226152509
aF0.5
aF0.5
aF0.5
aF0.5
aF0.29949263946295768
aF0.45804756623746468
aF0.54613363666774628
aF0.634219707098028
aF0.5
aF0.5
aF0.5
aF0.5
aF0.43643578047198478
aF0.43643578047198478
aF0.6546536707079772
aF0.43643578047198478
aF0.457495710997814
aF0.457495710997814
aF0.457495710997814
aF0.60999428133041866
aF0.58817169767504618
aF0.44112877325628463
aF0.51465023546566535
aF0.44112877325628463
aF0.5
aF0.5
aF0.5
aF0.5
aF0.43643578047198478
aF0.6546536707079772
aF0.43643578047198478
aF0.43643578047198478
aF0.57735026918962573
aF0.46188021535170054
aF0.34641016151377541
aF0.57735026918962573
aF0.43643578047198478
aF0.43643578047198478
aF0.6546536707079772
aF0.43643578047198478
aF0.33699357378103822
aF0.39315916941121126
aF0.78631833882242252
aF0.33699357378103822
aF0.5
aF0.5
aF0.5
aF0.5
aF0.1270001270001905
aF0.38100038100057149
aF0.50800050800076202
aF0.76200076200114297
aF0.22645540682891913
aF0.11322770341445956
aF0.33968311024337872
aF0.9058216273156765
aF0.42426406871192851
aF0.56568542494923801
aF0.56568542494923801
aF0.42426406871192851
aF0.63245553203367588
aF0.63245553203367588
aF0.31622776601683794
aF0.31622776601683794
aF0.56568542494923801
aF0.42426406871192851
aF0.42426406871192851
aF0.56568542494923801
aF0.5
aF0.5
aF0.5
aF0.5
aF0.42426406871192851
aF0.42426406871192851
aF0.56568542494923801
aF0.56568542494923801
aF0.80064076902543568
aF0.32025630761017426
aF0.48038446141526137
aF0.16012815380508713
aF0.64888568452305018
aF0.48666426339228763
aF0.32444284226152509
aF0.48666426339228763
aF0.30304576336566325
aF0.30304576336566325
aF0.80812203564176854
aF0.40406101782088427
aF0.23570226039551587
aF0.47140452079103173
aF0.47140452079103173
aF0.70710678118654757
aF0.41602514716892186
aF0.41602514716892186
aF0.41602514716892186
aF0.69337524528153649
aF0.43580096445528321
aF0.7470873676376284
aF0.43580096445528321
aF0.24902912254587611
aF0.60370062381498391
aF0.50308385317915327
aF0.46954492963387634
aF0.40246708254332264
aF0.44901325506693729
aF0.44901325506693729
aF0.44901325506693729
aF0.62861855709371217
aF0.5
aF0.5
aF0.5
aF0.5
aF0.55866081912733556
aF0.47885213068057331
aF0.47885213068057331
aF0.47885213068057331
aF0.5
aF0.5
aF0.5
aF0.5
aF0.5
aF0.5
aF0.5
aF0.5
aF0.5
aF0.5
aF0.5
aF0.5
aF0.457495710997814
aF0.457495710997814
aF0.60999428133041866
aF0.457495710997814
aF0.73901434950519318
aF0.388954920792207
aF0.388954920792207
aF0.388954920792207
aF0.5
aF0.5
aF0.5
aF0.5
aF0.43643578047198478
aF0.43643578047198478
aF0.43643578047198478
aF0.6546536707079772
aF0.5
aF0.5
aF0.5
aF0.5
aF0.5
aF0.5
aF0.5
aF0.5
aF0.5
aF0.5
aF0.5
aF0.5
aF0.46017899330842221
aF0.53687549219315922
aF0.53687549219315922
aF0.46017899330842221
aF0.457495710997814
aF0.60999428133041866
aF0.457495710997814
aF0.457495710997814
aF0.43502841291666561
aF0.40156468884615282
aF0.53541958512820365
aF0.60234703326922923
aF0.43580096445528327
aF0.49805824509175228
aF0.5603155257282213
aF0.49805824509175228
aF0.5212860351426869
aF0.72980044919976172
aF0.31277162108561218
aF0.31277162108561218
aF0.341344644923746
aF0.35841187716993334
aF0.61442036086274288
aF0.61442036086274288
aF0.43643578047198478
aF0.6546536707079772
aF0.43643578047198478
aF0.43643578047198478
aF0.63245553203367588
aF0.31622776601683794
aF0.63245553203367588
aF0.31622776601683794
aF0.42426406871192851
aF0.56568542494923801
aF0.42426406871192851
aF0.56568542494923801
aF0.457495710997814
aF0.60999428133041866
aF0.457495710997814
aF0.457495710997814
aF0.5
aF0.5
aF0.5
aF0.5
aF0.5388159060803247
aF0.5388159060803247
aF0.5388159060803247
aF0.35921060405354982
aF0.457495710997814
aF0.457495710997814
aF0.60999428133041866
aF0.457495710997814
aF0.39223227027636809
aF0.39223227027636809
aF0.58834840541455213
aF0.58834840541455213
aF0.5212860351426869
aF0.31277162108561218
aF0.72980044919976172
aF0.31277162108561218
aF0.46358632497276531
aF0.59603956067926966
aF0.46358632497276531
aF0.46358632497276531
aF0.6041445928029443
aF0.6041445928029443
aF0.3883786668018927
aF0.34522548160168243
aF0.28867513459481292
aF0.28867513459481292
aF0.86602540378443871
aF0.28867513459481292
aF0.58834840541455213
aF0.39223227027636809
aF0.39223227027636809
aF0.58834840541455213
aF0.3481553119113957
aF0.5222329678670935
aF0.69631062382279141
aF0.3481553119113957
aF0.43643578047198478
aF0.6546536707079772
aF0.43643578047198478
aF0.43643578047198478
aF0.5714285714285714
aF0.2857142857142857
aF0.2857142857142857
aF0.7142857142857143
aF0.63538550210778988
aF0.43682753269910551
aF0.46330192862026343
aF0.43682753269910551
aF0.16012815380508713
aF0.96076892283052273
aF0.16012815380508713
aF0.16012815380508713
aF0.65079137345596849
aF0.21693045781865616
aF0.65079137345596849
aF0.32539568672798425
aF0.39223227027636803
aF0.58834840541455202
aF0.58834840541455202
aF0.39223227027636803
aF0.43246144425065081
aF0.43246144425065081
aF0.49424165057217234
aF0.61780206321521547
aF0.44501236673450423
aF0.44501236673450423
aF0.48546803643764097
aF0.60683504554705114
aF0.43979949713354244
aF0.48377944684689672
aF0.43979949713354244
aF0.6157192959869594
aF0.47424367491514957
aF0.47424367491514957
aF0.60358285898291764
aF0.43113061355922688
aF0.49187881037574982
aF0.45795613379811184
aF0.25442007433228436
aF0.6954148698415773
aF0.32444284226152509
aF0.48666426339228763
aF0.64888568452305018
aF0.48666426339228763
aF0.64888568452305018
aF0.32444284226152509
aF0.48666426339228763
aF0.48666426339228763
aF0.55470019622522915
aF0.55470019622522915
aF0.27735009811261457
aF0.55470019622522915
aF0.58520573598065284
aF0.46816458878452227
aF0.46816458878452227
aF0.46816458878452227
aF0.70710678118654757
aF0.47140452079103173
aF0.23570226039551587
aF0.47140452079103173
aF0.5
aF0.5
aF0.5
aF0.5
aF0.3779644730092272
aF0.3779644730092272
aF0.3779644730092272
aF0.7559289460184544
aF0.43643578047198478
aF0.6546536707079772
aF0.43643578047198478
aF0.43643578047198478
aF0.39223227027636809
aF0.58834840541455213
aF0.39223227027636809
aF0.58834840541455213
aF0.42579703632987959
aF0.63869555449481941
aF0.42579703632987959
aF0.47902166587111455
aF0.63245553203367588
aF0.63245553203367588
aF0.31622776601683794
aF0.31622776601683794
aF0.54021612968646049
aF0.54021612968646049
aF0.32012807685123584
aF0.56022413448966268
aF0.47885213068057331
aF0.47885213068057331
aF0.55866081912733556
aF0.47885213068057331
aF0.3254722774520597
aF0.58585009941370747
aF0.58585009941370747
aF0.45566118843288356
aF0.5
aF0.5
aF0.5
aF0.5
aF0.48418202613504197
aF0.48418202613504197
aF0.54470477940192219
aF0.48418202613504197
aF0.5
aF0.5
aF0.5
aF0.5
aF0.46816458878452227
aF0.46816458878452227
aF0.58520573598065284
aF0.46816458878452227
aF0.40613846605344756
aF0.40613846605344756
aF0.71074231559353329
aF0.40613846605344756
aF0.51465023546566535
aF0.58817169767504618
aF0.44112877325628463
aF0.44112877325628463
aF0.5388159060803247
aF0.5388159060803247
aF0.5388159060803247
aF0.35921060405354982
aF0.46175709653961017
aF0.46175709653961017
aF0.60028422550149318
aF0.46175709653961017
aF0.6546536707079772
aF0.43643578047198478
aF0.43643578047198478
aF0.43643578047198478
aF0.5
aF0.5
aF0.5
aF0.5
aF0.46816458878452227
aF0.46816458878452227
aF0.46816458878452227
aF0.58520573598065284
aF0.457495710997814
aF0.457495710997814
aF0.457495710997814
aF0.60999428133041866
aF0.5
aF0.5
aF0.5
aF0.5
aF0.3779644730092272
aF0.3779644730092272
aF0.7559289460184544
aF0.3779644730092272
aF0.5
aF0.5
aF0.5
aF0.5
aF0.457495710997814
aF0.60999428133041866
aF0.457495710997814
aF0.457495710997814
aF0.52026598171447191
aF0.52026598171447191
aF0.43355498476205995
aF0.52026598171447191
aF0.39223227027636809
aF0.58834840541455213
aF0.39223227027636809
aF0.58834840541455213
aF0.3779644730092272
aF0.7559289460184544
aF0.3779644730092272
aF0.3779644730092272
aF0.3261640365267211
aF0.3261640365267211
aF0.84802649496947491
aF0.2609312292213769
aF0.78496372262078529
aF0.32112152289032125
aF0.3746417767053748
aF0.3746417767053748
aF0.63245553203367588
aF0.31622776601683794
aF0.31622776601683794
aF0.63245553203367588
aF0.39223227027636809
aF0.58834840541455213
aF0.39223227027636809
aF0.58834840541455213
aF0.31330417999518295
aF0.8615864949867531
aF0.3916302249939787
aF0.078326044998795738
aF0.60999428133041866
aF0.457495710997814
aF0.457495710997814
aF0.457495710997814
aF0.48595432244043502
aF0.48595432244043502
aF0.53994924715603887
aF0.48595432244043502
aF0.5
aF0.5
aF0.5
aF0.5
aF0.5
aF0.5
aF0.5
aF0.5
aF0.46358632497276531
aF0.46358632497276531
aF0.59603956067926966
aF0.46358632497276531
aF0.44112877325628463
aF0.51465023546566535
aF0.58817169767504618
aF0.44112877325628463
aF0.5
aF0.5
aF0.5
aF0.5
aF0.51261459463005654
aF0.34174306308670438
aF0.51261459463005654
aF0.59805036040173265
aF0.3692744729379982
aF0.61545745489666359
aF0.4923659639173309
aF0.4923659639173309
aF0.39605901719066977
aF0.4950737714883372
aF0.4950737714883372
aF0.59408852578600457
aF0.74499231548755007
aF0.34921514788478913
aF0.32593413802580318
aF0.46562019717971881
aF0.49779248369997897
aF0.56416481485997616
aF0.49779248369997897
aF0.43142015253998178
aF0.55384877562171131
aF0.49846389805954017
aF0.49846389805954017
aF0.44307902049736902
aF0.44901325506693729
aF0.44901325506693729
aF0.44901325506693729
aF0.62861855709371217
aF0.457495710997814
aF0.457495710997814
aF0.60999428133041866
aF0.457495710997814
aF0.5
aF0.5
aF0.5
aF0.5
aF0.6546536707079772
aF0.43643578047198478
aF0.43643578047198478
aF0.43643578047198478
aF0.5
aF0.5
aF0.5
aF0.5
aF0.64715022892943397
aF0.36980013081681939
aF0.55470019622522904
aF0.36980013081681939
aF0.57539645556875052
aF0.41099746826339323
aF0.41099746826339323
aF0.57539645556875052
aF0
aF0.63960214906683133
aF0.42640143271122083
aF0.63960214906683133
aF0.43643578047198478
aF0.6546536707079772
aF0.43643578047198478
aF0.43643578047198478
aF0.44901325506693729
aF0.44901325506693729
aF0.62861855709371217
aF0.44901325506693729
aF0.5
aF0.5
aF0.5
aF0.5
aF0.5
aF0.5
aF0.5
aF0.5
aF0.46358632497276531
aF0.46358632497276531
aF0.59603956067926966
aF0.46358632497276531
aF0.31923475378704885
aF0.31923475378704885
aF0.7980868844676221
aF0.39904344223381105
aF0.46816458878452227
aF0.58520573598065284
aF0.46816458878452227
aF0.46816458878452227
aF0.32991443953692901
aF0.74230748895809029
aF0.41239304942116128
aF0.41239304942116128
aF0.42215852683817512
aF0.49251828131120423
aF0.42215852683817512
aF0.63323779025726268
aF0.47457899787624952
aF0.56949479745149945
aF0.47457899787624952
aF0.47457899787624952
aF0.42426406871192851
aF0.56568542494923801
aF0.56568542494923801
aF0.42426406871192851
aF0.63245553203367588
aF0.31622776601683794
aF0.31622776601683794
aF0.63245553203367588
aF0.59603956067926966
aF0.46358632497276531
aF0.46358632497276531
aF0.46358632497276531
aF0.6546536707079772
aF0.43643578047198478
aF0.43643578047198478
aF0.43643578047198478
aF0.5
aF0.5
aF0.5
aF0.5
aF0.55470019622522915
aF0.27735009811261457
aF0.55470019622522915
aF0.55470019622522915
aF0.62861855709371217
aF0.44901325506693729
aF0.44901325506693729
aF0.44901325506693729
aF0.44112877325628463
aF0.51465023546566535
aF0.58817169767504618
aF0.44112877325628463
aF0.5
aF0.5
aF0.5
aF0.5
aF0.59628479399994394
aF0.29814239699997197
aF0.59628479399994394
aF0.44721359549995793
aF0.4147806778921701
aF0.62217101683825515
aF0.4147806778921701
aF0.51847584736521268
aF0.46169025843831929
aF0.35909242322980384
aF0.66688592885535014
aF0.46169025843831929
aF0.27472112789737807
aF0.27472112789737807
aF0.82416338369213415
aF0.41208169184606708
aF0.41602514716892186
aF0.41602514716892186
aF0.41602514716892186
aF0.69337524528153649
aF0.49195203701447265
aF0.6969320524371696
aF0.36896402776085452
aF0.36896402776085452
aF0.457495710997814
aF0.457495710997814
aF0.60999428133041866
aF0.457495710997814
aF0.35705747414196143
aF0.58021839548068732
aF0.44632184267745179
aF0.58021839548068732
aF0.57539645556875052
aF0.41099746826339323
aF0.41099746826339323
aF0.57539645556875052
aF0.58520573598065284
aF0.46816458878452227
aF0.46816458878452227
aF0.46816458878452227
aF0.6546536707079772
aF0.43643578047198478
aF0.43643578047198478
aF0.43643578047198478
aF0.62222222222222223
aF0.46666666666666667
aF0.44444444444444442
aF0.44444444444444442
aF0.44901325506693729
aF0.44901325506693729
aF0.62861855709371217
aF0.44901325506693729
aF0.46188021535170054
aF0.57735026918962573
aF0.57735026918962573
aF0.34641016151377541
aF0.80295506854696608
aF0.34412360080584259
aF0.34412360080584259
aF0.34412360080584259
aF0.41353196253099489
aF0.69783518677105394
aF0.41353196253099489
aF0.41353196253099489
aF0.63245553203367588
aF0.63245553203367588
aF0.31622776601683794
aF0.31622776601683794
aF0.45999999999999991
aF0.41999999999999998
aF0.65999999999999992
aF0.41999999999999998
aF0.5
aF0.5
aF0.5
aF0.5
aF0.457495710997814
aF0.60999428133041866
aF0.457495710997814
aF0.457495710997814
aF0.45454545454545453
aF0.36363636363636365
aF0.36363636363636365
aF0.72727272727272729
aF0.35921060405354982
aF0.5388159060803247
aF0.5388159060803247
aF0.5388159060803247
aF0.5
aF0.5
aF0.5
aF0.5
aF0.5
aF0.5
aF0.5
aF0.5
aF0.47885213068057331
aF0.47885213068057331
aF0.47885213068057331
aF0.55866081912733556
aF0.51379034006992852
aF0.40297281574112043
aF0.36267553416700837
aF0.66490514597284867
aF0.7559289460184544
aF0.3779644730092272
aF0.3779644730092272
aF0.3779644730092272
aF0.5
aF0.5
aF0.5
aF0.5
aF0.58834840541455213
aF0.39223227027636809
aF0.39223227027636809
aF0.58834840541455213
aF0.5388159060803247
aF0.35921060405354982
aF0.5388159060803247
aF0.5388159060803247
aF0.6092717958449424
aF0.26111648393354675
aF0.6092717958449424
aF0.4351941398892446
aF0.40201512610368484
aF0.70352647068144847
aF0.30151134457776363
aF0.50251890762960605
aF0.4147806778921701
aF0.4147806778921701
aF0.62217101683825515
aF0.51847584736521268
aF0.41602514716892186
aF0.41602514716892186
aF0.69337524528153649
aF0.41602514716892186
aF0.46816458878452227
aF0.46816458878452227
aF0.58520573598065284
aF0.46816458878452227
aF0.5
aF0.5
aF0.5
aF0.5
aF0.43682597793970712
aF0.48050857573367783
aF0.62247701856408266
aF0.43682597793970712
aF0.44112877325628463
aF0.58817169767504618
aF0.51465023546566535
aF0.44112877325628463
aF0.457495710997814
aF0.60999428133041866
aF0.457495710997814
aF0.457495710997814
aF0.62861855709371217
aF0.44901325506693729
aF0.44901325506693729
aF0.44901325506693729
aF0.64372630957871813
aF0.29260286799032642
aF0.64372630957871813
aF0.29260286799032642
aF0.36401260415463205
aF0.59152048175127714
aF0.40951417967396103
aF0.59152048175127714
aF0.27735009811261457
aF0.55470019622522915
aF0.55470019622522915
aF0.55470019622522915
aF0.7559289460184544
aF0.3779644730092272
aF0.3779644730092272
aF0.3779644730092272
aF0.5
aF0.5
aF0.5
aF0.5
aF0.13867504905630729
aF0.69337524528153649
aF0.69337524528153649
aF0.13867504905630729
aF0.39223227027636809
aF0.58834840541455213
aF0.58834840541455213
aF0.39223227027636809
aF0.41602514716892186
aF0.41602514716892186
aF0.69337524528153649
aF0.41602514716892186
aF0.60999428133041866
aF0.457495710997814
aF0.457495710997814
aF0.457495710997814
aF0.5
aF0.5
aF0.5
aF0.5
aF0.3692744729379982
aF0.4923659639173309
aF0.4923659639173309
aF0.61545745489666359
aF0.48666426339228763
aF0.48666426339228763
aF0.32444284226152509
aF0.64888568452305018
aF0.3779644730092272
aF0.3779644730092272
aF0.3779644730092272
aF0.7559289460184544
aF0.43643578047198478
aF0.43643578047198478
aF0.6546536707079772
aF0.43643578047198478
aF0.60999428133041866
aF0.457495710997814
aF0.457495710997814
aF0.457495710997814
aF0.3779644730092272
aF0.3779644730092272
aF0.7559289460184544
aF0.3779644730092272
aF0.58520573598065284
aF0.46816458878452227
aF0.46816458878452227
aF0.46816458878452227
aF0.457495710997814
aF0.457495710997814
aF0.60999428133041866
aF0.457495710997814
aF0.5792844463634923
aF0.40549911245444459
aF0.40549911245444459
aF0.5792844463634923
aF0.43033148291193524
aF0.43033148291193524
aF0.51639777949432231
aF0.60246407607670927
aF0.63245553203367588
aF0.31622776601683794
aF0.31622776601683794
aF0.63245553203367588
aF0.457495710997814
aF0.60999428133041866
aF0.457495710997814
aF0.457495710997814
aF0.46358632497276531
aF0.46358632497276531
aF0.46358632497276531
aF0.59603956067926966
aF0.35921060405354982
aF0.5388159060803247
aF0.5388159060803247
aF0.5388159060803247
aF0.52124669131568324
aF0.47780946703937632
aF0.47780946703937632
aF0.52124669131568324
aF0.58520573598065284
aF0.46816458878452227
aF0.46816458878452227
aF0.46816458878452227
aF0.43643578047198478
aF0.43643578047198478
aF0.6546536707079772
aF0.43643578047198478
aF0.457495710997814
aF0.60999428133041866
aF0.457495710997814
aF0.457495710997814
aF0.50000000000000011
aF0.5
aF0.5
aF0.5
aF0.42215852683817512
aF0.42215852683817512
aF0.49251828131120429
aF0.63323779025726268
aF0.44666250028691862
aF0.59555000038255812
aF0.49629166698546512
aF0.44666250028691862
aF0.71074231559353329
aF0.40613846605344761
aF0.40613846605344761
aF0.40613846605344761
aF0.41702882811414949
aF0.76455285154260744
aF0.34752402342845795
aF0.34752402342845795
aF0.54470477940192219
aF0.48418202613504197
aF0.48418202613504197
aF0.48418202613504197
aF0.5196558419693047
aF0.19487094073848926
aF0.5196558419693047
aF0.64956980246163087
aF0.56949479745149945
aF0.47457899787624952
aF0.47457899787624952
aF0.47457899787624952
aF0.63245553203367588
aF0.63245553203367588
aF0.31622776601683794
aF0.31622776601683794
aF0.47172817652486326
aF0.47172817652486326
aF0.47172817652486326
aF0.57655666019705509
aF0.43643578047198478
aF0.43643578047198478
aF0.43643578047198478
aF0.6546536707079772
aF0.3692744729379982
aF0.4923659639173309
aF0.4923659639173309
aF0.61545745489666359
aF0.42426406871192851
aF0.56568542494923801
aF0.56568542494923801
aF0.42426406871192851
aF0.457495710997814
aF0.60999428133041866
aF0.457495710997814
aF0.457495710997814
aF0.5
aF0.5
aF0.5
aF0.5
aF0.5
aF0.5
aF0.5
aF0.5
aF0.43412157106222965
aF0.43412157106222965
aF0.55815630565143803
aF0.55815630565143803
aF0.58834840541455213
aF0.39223227027636809
aF0.58834840541455213
aF0.39223227027636809
aF0.54554472558998102
aF0.54554472558998102
aF0.54554472558998102
aF0.3273268353539886
aF0.457495710997814
aF0.457495710997814
aF0.457495710997814
aF0.60999428133041866
aF0.56694670951384085
aF0.1889822365046136
aF0.56694670951384085
aF0.56694670951384085
aF0.6546536707079772
aF0.43643578047198478
aF0.43643578047198478
aF0.43643578047198478
aF0.57655666019705509
aF0.47172817652486326
aF0.47172817652486326
aF0.47172817652486326
aF0.58520573598065284
aF0.46816458878452227
aF0.46816458878452227
aF0.46816458878452227
aF0.47457899787624952
aF0.47457899787624952
aF0.47457899787624952
aF0.56949479745149945
aF0.5
aF0.5
aF0.5
aF0.5
aF0.86602540378443871
aF0.28867513459481292
aF0.28867513459481292
aF0.28867513459481292
aF0.46816458878452227
aF0.58520573598065284
aF0.46816458878452227
aF0.46816458878452227
aF0.44901325506693729
aF0.44901325506693729
aF0.62861855709371217
aF0.44901325506693729
aF0.60999428133041866
aF0.457495710997814
aF0.457495710997814
aF0.457495710997814
aF0.6546536707079772
aF0.43643578047198478
aF0.43643578047198478
aF0.43643578047198478
aF0.6546536707079772
aF0.43643578047198478
aF0.43643578047198478
aF0.43643578047198478
aF0.22485950669875843
aF0.29981267559834457
aF0.89943802679503371
aF0.22485950669875843
aF0.5
aF0.5
aF0.5
aF0.5
aF0.5
aF0.5
aF0.5
aF0.5
aF0.59648090806346066
aF0.55059776128934823
aF0.41294832096701117
aF0.41294832096701117
aF0.49251828131120429
aF0.42215852683817512
aF0.63323779025726268
aF0.42215852683817512
aF0.38417490996391618
aF0.60370342994329684
aF0.49393916995360654
aF0.49393916995360654
aF0.48112522432468813
aF0.48112522432468813
aF0.67357531405456339
aF0.28867513459481287
aF0.35856858280031806
aF0.35856858280031806
aF0.47809144373375745
aF0.71713716560063612
aF0.48741743667595394
aF0.48741743667595394
aF0.41778637429367482
aF0.59186403024937262
aF0.36857707010037072
aF0.73715414020074144
aF0.43000658178376583
aF0.36857707010037072
aF0.39223227027636809
aF0.39223227027636809
aF0.58834840541455213
aF0.58834840541455213
aF0.62279915532921837
aF0.46709936649691375
aF0.31139957766460918
aF0.54494926091306606
aF0.457495710997814
aF0.457495710997814
aF0.457495710997814
aF0.60999428133041866
aF0.34022878627424563
aF0.28352398856187133
aF0.51034317941136842
aF0.73716237026086551
aF0.39223227027636809
aF0.39223227027636809
aF0.58834840541455213
aF0.58834840541455213
aF0.42426406871192851
aF0.42426406871192851
aF0.56568542494923801
aF0.56568542494923801
aF0.3481553119113957
aF0.3481553119113957
aF0.5222329678670935
aF0.69631062382279141
aF0.62861855709371217
aF0.44901325506693729
aF0.44901325506693729
aF0.44901325506693729
aF0.4147806778921701
aF0.51847584736521268
aF0.4147806778921701
aF0.62217101683825515
aF0.44666250028691867
aF0.44666250028691867
aF0.59555000038255823
aF0.49629166698546512
aF0.54815096786202533
aF0.54815096786202533
aF0.47963209687927216
aF0.411113225896519
aF0.28867513459481287
aF0.8660254037844386
aF0.28867513459481287
aF0.28867513459481287
aF0.60633906259083248
aF0.36380343755449945
aF0.36380343755449945
aF0.60633906259083248
aF0.51745488966820097
aF0.51745488966820097
aF0.51745488966820097
aF0.44353276257274371
aF0.5388159060803247
aF0.5388159060803247
aF0.35921060405354982
aF0.5388159060803247
aF0.55215763037423271
aF0.55215763037423271
aF0.44172610429938614
aF0.44172610429938614
aF0.5
aF0.5
aF0.5
aF0.5
aF0.5
aF0.5
aF0.5
aF0.5
aF0.43643578047198478
aF0.43643578047198478
aF0.6546536707079772
aF0.43643578047198478
aF0.34299717028501764
aF0.8574929257125441
aF0.17149858514250882
aF0.34299717028501764
aF0.7559289460184544
aF0.3779644730092272
aF0.3779644730092272
aF0.3779644730092272
aF0.40824829046386307
aF0.81649658092772615
aF0
aF0.40824829046386307
aF0.35856858280031811
aF0.35856858280031811
aF0.71713716560063623
aF0.47809144373375745
aF0.32929277996907103
aF0.76834981992783236
aF0.43905703995876139
aF0.32929277996907103
aF0.5
aF0.5
aF0.5
aF0.5
aF0.47457899787624952
aF0.47457899787624952
aF0.47457899787624952
aF0.56949479745149945
aF0.62217101683825515
aF0.51847584736521268
aF0.4147806778921701
aF0.4147806778921701
aF0.5
aF0.5
aF0.5
aF0.5
aF0.39223227027636809
aF0.39223227027636809
aF0.58834840541455213
aF0.58834840541455213
aF0.47301616487964016
aF0.54058990271958873
aF0.60816364055953731
aF0.33786868919974294
aF0.44074127735352675
aF0.64416032843976989
aF0.47464445253456727
aF0.40683810217248623
aF0.41142239174273026
aF0.65827582678836838
aF0.43885055119224559
aF0.45256463091700327
aF0.3779644730092272
aF0.3779644730092272
aF0.7559289460184544
aF0.3779644730092272
aF0.40549911245444459
aF0.5792844463634923
aF0.40549911245444459
aF0.5792844463634923
aF0.38851434494290565
aF0.38851434494290565
aF0.48564293117863205
aF0.67990010365008491
aF0.3779644730092272
aF0.3779644730092272
aF0.3779644730092272
aF0.7559289460184544
aF0.457495710997814
aF0.457495710997814
aF0.60999428133041866
aF0.457495710997814
aF0.6546536707079772
aF0.43643578047198478
aF0.43643578047198478
aF0.43643578047198478
aF0.36369648372665397
aF0.43643578047198472
aF0.58191437396264634
aF0.58191437396264634
aF0.43643578047198478
aF0.43643578047198478
aF0.6546536707079772
aF0.43643578047198478
aF0.39223227027636809
aF0.58834840541455213
aF0.39223227027636809
aF0.58834840541455213
aF0.5
aF0.5
aF0.5
aF0.5
aF0.6546536707079772
aF0.43643578047198478
aF0.43643578047198478
aF0.43643578047198478
aF0.5
aF0.5
aF0.5
aF0.5
aF0.47457899787624952
aF0.47457899787624952
aF0.47457899787624952
aF0.56949479745149945
aF0.47457899787624952
aF0.47457899787624952
aF0.56949479745149945
aF0.47457899787624952
aF0.58520573598065284
aF0.46816458878452227
aF0.46816458878452227
aF0.46816458878452227
aF0.3481553119113957
aF0.5222329678670935
aF0.69631062382279141
aF0.3481553119113957
aF0.39223227027636809
aF0.58834840541455213
aF0.39223227027636809
aF0.58834840541455213
aF0.38943390680898837
aF0.68150933691572957
aF0.43811314516011196
aF0.43811314516011196
aF0.3273268353539886
aF0.54554472558998102
aF0.54554472558998102
aF0.54554472558998102
aF0.457495710997814
aF0.60999428133041866
aF0.457495710997814
aF0.457495710997814
aF0.5
aF0.5
aF0.5
aF0.5
aF0.57735026918962584
aF0
aF0.57735026918962584
aF0.57735026918962584
aF0.457495710997814
aF0.457495710997814
aF0.60999428133041866
aF0.457495710997814
aF0.5
aF0.5
aF0.5
aF0.5
aF0.69631062382279141
aF0.3481553119113957
aF0.3481553119113957
aF0.5222329678670935
aF0.5140235242537432
aF0.3855176431903074
aF0.34268234950249549
aF0.68536469900499097
aF0.41602514716892186
aF0.41602514716892186
aF0.41602514716892186
aF0.69337524528153649
aF0.5
aF0.5
aF0.5
aF0.5
aF0.39056673294247163
aF0.52075564392329554
aF0.6509445549041194
aF0.39056673294247163
aF0.44011331711672308
aF0.64722546634812217
aF0.44011331711672308
aF0.44011331711672308
aF0.43643578047198478
aF0.43643578047198478
aF0.6546536707079772
aF0.43643578047198478
aF0.46816458878452227
aF0.58520573598065284
aF0.46816458878452227
aF0.46816458878452227
aF0.48377944684689672
aF0.43979949713354244
aF0.43979949713354244
aF0.6157192959869594
aF0.55470019622522915
aF0.27735009811261457
aF0.55470019622522915
aF0.55470019622522915
aF0.48666426339228763
aF0.48666426339228763
aF0.32444284226152509
aF0.64888568452305018
aF0.23008949665421111
aF0.38348249442368521
aF0.46017899330842221
aF0.76696498884737041
aF0.5
aF0.5
aF0.5
aF0.5
aF0.48666426339228763
aF0.48666426339228763
aF0.32444284226152509
aF0.64888568452305018
aF0.55215763037423271
aF0.44172610429938614
aF0.55215763037423271
aF0.44172610429938614
aF0.39223227027636809
aF0.39223227027636809
aF0.58834840541455213
aF0.58834840541455213
aF0.38395699922399551
aF0.6119314675132429
aF0.43195162412699495
aF0.53993953015874374
aF0.5
aF0.5
aF0.5
aF0.5
aF0.43643578047198478
aF0.6546536707079772
aF0.43643578047198478
aF0.43643578047198478
aF0.44901325506693729
aF0.44901325506693729
aF0.44901325506693729
aF0.62861855709371217
aF0.43643578047198478
aF0.43643578047198478
aF0.43643578047198478
aF0.6546536707079772
aF0.43643578047198478
aF0.6546536707079772
aF0.43643578047198478
aF0.43643578047198478
aF0.5
aF0.5
aF0.5
aF0.5
aF0.6546536707079772
aF0.43643578047198478
aF0.43643578047198478
aF0.43643578047198478
aF0.42332439077261874
aF0.42332439077261874
aF0.51739647761097851
aF0.61146856444933817
aF0.62017367294604231
aF0.57882876141630613
aF0.33075929223788925
aF0.41344911529736156
aF0.5388159060803247
aF0.5388159060803247
aF0.35921060405354982
aF0.5388159060803247
aF0.5
aF0.5
aF0.5
aF0.5
aF0.29012942659282975
aF0.46420708254852755
aF0.69631062382279141
aF0.46420708254852755
aF0.40824829046386302
aF0.54433105395181736
aF0.6804138174397717
aF0.27216552697590868
aF0.66666666666666663
aF0.53333333333333333
aF0.33333333333333331
aF0.40000000000000002
aF0.44539933408304444
aF0.63628476297577774
aF0.44539933408304444
aF0.44539933408304444
aF0.31311214554257477
aF0.81409157841069435
aF0.37573457465108973
aF0.31311214554257477
aF0.77062638851446463
aF0.31525624984682643
aF0.31525624984682643
aF0.4553701386676382
aF0.89442719099991586
aF0.44721359549995793
aF0
aF0
aF0.50709255283710997
aF0.50709255283710997
aF0.67612340378281321
aF0.1690308509457033
aF0.41602514716892186
aF0.41602514716892186
aF0.69337524528153649
aF0.41602514716892186
aF0.15075567228888181
aF0.45226701686664544
aF0.45226701686664544
aF0.75377836144440902
aF0.43643578047198478
aF0.6546536707079772
aF0.43643578047198478
aF0.43643578047198478
aF0.47885213068057331
aF0.55866081912733556
aF0.47885213068057331
aF0.47885213068057331
aF0.5
aF0.5
aF0.5
aF0.5
aF0.44290922588661319
aF0.49827287912243984
aF0.38754557265078654
aF0.63668201221200649
aF0.58834840541455213
aF0.58834840541455213
aF0.39223227027636809
aF0.39223227027636809
aF0.57735026918962573
aF0.57735026918962573
aF0.34641016151377541
aF0.46188021535170054
aF0.43643578047198478
aF0.6546536707079772
aF0.43643578047198478
aF0.43643578047198478
aF0.64888568452305018
aF0.48666426339228763
aF0.32444284226152509
aF0.48666426339228763
aF0.6546536707079772
aF0.43643578047198478
aF0.43643578047198478
aF0.43643578047198478
aF0.46816458878452227
aF0.46816458878452227
aF0.58520573598065284
aF0.46816458878452227
aF0.6719319439596787
aF0.42759305524706825
aF0.42759305524706825
aF0.42759305524706825
aF0.82199493652678646
aF0.32879797461071458
aF0.32879797461071458
aF0.32879797461071458
aF0.43643578047198478
aF0.6546536707079772
aF0.43643578047198478
aF0.43643578047198478
aF0.63372425052447789
aF0.44360697536713456
aF0.38023455031468678
aF0.50697940041958234
aF0.5337449961641163
aF0.5337449961641163
aF0.5337449961641163
aF0.38124642583151169
aF0.48418202613504197
aF0.54470477940192219
aF0.48418202613504197
aF0.48418202613504197
aF0.68150933691572957
aF0.43811314516011191
aF0.43811314516011191
aF0.38943390680898837
aF0.41446247249213586
aF0.3552535478504022
aF0.44406693481300274
aF0.71050709570080439
aF0.5
aF0.5
aF0.5
aF0.5
aF0.2581988897471611
aF0.2581988897471611
aF0.7745966692414834
aF0.5163977794943222
aF0.5
aF0.5
aF0.5
aF0.5
aF0.457495710997814
aF0.457495710997814
aF0.457495710997814
aF0.60999428133041866
aF0.72289739601224901
aF0.56225353023174918
aF0.24096579867074966
aF0.32128773156099955
aF0.47457899787624952
aF0.47457899787624952
aF0.47457899787624952
aF0.56949479745149945
aF0.44539933408304444
aF0.63628476297577774
aF0.44539933408304444
aF0.44539933408304444
aF0.61248570166100913
aF0.61248570166100913
aF0.35335713557365911
aF0.35335713557365911
aF0.65361987034609237
aF0.41281254969226883
aF0.48161464130764697
aF0.41281254969226883
aF0.3481553119113957
aF0.69631062382279141
aF0.5222329678670935
aF0.3481553119113957
aF0.29814239699997197
aF0.59628479399994394
aF0.59628479399994394
aF0.44721359549995793
aF0.28867513459481292
aF0.28867513459481292
aF0.86602540378443871
aF0.28867513459481292
aF0.50218437038242469
aF0.37663827778681847
aF0.46033567285055593
aF0.62773046297803081
aF0.73716237026086551
aF0.28352398856187133
aF0.34022878627424563
aF0.51034317941136842
aF0.457495710997814
aF0.457495710997814
aF0.457495710997814
aF0.60999428133041866
aF0.5
aF0.5
aF0.5
aF0.5
aF0.4886033689318432
aF0.69800481275977599
aF0.41880288765586565
aF0.31410216574189925
aF0.71600155575815705
aF0.47733437050543803
aF0.31822291367029198
aF0.39777864208786501
aF0.52750437871662958
aF0.59344242605620834
aF0.39562828403747219
aF0.46156633137705089
aF0.43643578047198472
aF0.65465367070797709
aF0.43643578047198472
aF0.43643578047198472
aF0.45218673515537722
aF0.45218673515537722
aF0.62175676083864362
aF0.45218673515537722
aF0.6394227626801684
aF0.40259951724306897
aF0.49732881541790874
aF0.42628184178677891
aF0.46816458878452227
aF0.46816458878452227
aF0.46816458878452227
aF0.58520573598065284
aF0.5
aF0.5
aF0.5
aF0.5
aF0.41931393468876732
aF0.52414241836095921
aF0.52414241836095921
aF0.52414241836095921
aF0.47699904600286203
aF0.26499947000159002
aF0.47699904600286203
aF0.68899862200413409
aF0.43643578047198478
aF0.43643578047198478
aF0.6546536707079772
aF0.43643578047198478
aF0.43643578047198478
aF0.6546536707079772
aF0.43643578047198478
aF0.43643578047198478
aF0.61545745489666359
aF0.4923659639173309
aF0.3692744729379982
aF0.4923659639173309
aF0.44901325506693729
aF0.62861855709371217
aF0.44901325506693729
aF0.44901325506693729
aF0.35503580124836315
aF0.52071917516426591
aF0.47338106833115084
aF0.61539538883049616
aF0.5337449961641163
aF0.5337449961641163
aF0.5337449961641163
aF0.38124642583151169
aF0.50783337507700821
aF0.72547625011001171
aF0.29019050004400465
aF0.36273812505500586
aF0.30389487055903452
aF0.34188172937891387
aF0.30389487055903452
aF0.835710894037345
aF0.60999428133041866
aF0.457495710997814
aF0.457495710997814
aF0.457495710997814
aF0.457495710997814
aF0.60999428133041866
aF0.457495710997814
aF0.457495710997814
aF0.5
aF0.5
aF0.5
aF0.5
aF0.7559289460184544
aF0.3779644730092272
aF0.3779644730092272
aF0.3779644730092272
aF0.44901325506693729
aF0.44901325506693729
aF0.62861855709371217
aF0.44901325506693729
aF0.5
aF0.5
aF0.5
aF0.5
aF0.54554472558998102
aF0.54554472558998102
aF0.54554472558998102
aF0.3273268353539886
aF0.60999428133041866
aF0.457495710997814
aF0.457495710997814
aF0.457495710997814
aF0.5
aF0.5
aF0.5
aF0.5
aF0.70270270270270274
aF0.32432432432432429
aF0.48648648648648646
aF0.40540540540540537
aF0.5
aF0.5
aF0.5
aF0.5
aF0.457495710997814
aF0.457495710997814
aF0.60999428133041866
aF0.457495710997814
aF0.30860669992418382
aF0.46291004988627571
aF0.77151674981045948
aF0.30860669992418382
aF0.18257418583505536
aF0.36514837167011072
aF0.73029674334022143
aF0.54772255750516607
aF0.5
aF0.5
aF0.5
aF0.5
aF0.58834840541455213
aF0.58834840541455213
aF0.39223227027636809
aF0.39223227027636809
aF0.5388159060803247
aF0.35921060405354982
aF0.5388159060803247
aF0.5388159060803247
aF0.457495710997814
aF0.60999428133041866
aF0.457495710997814
aF0.457495710997814
aF0.5
aF0.5
aF0.5
aF0.5
aF0.66742381247191462
aF0.38138503569823695
aF0.28603877677367767
aF0.57207755354735534
aF0.5
aF0.5
aF0.5
aF0.5
aF0.42193257243501098
aF0.42193257243501098
aF0.56742656292984228
aF0.56742656292984228
aF0.36380343755449945
aF0.36380343755449945
aF0.60633906259083248
aF0.60633906259083248
aF0.19569842191603265
aF0.58709526574809801
aF0.58709526574809801
aF0.5218624584427537
aF0.3779644730092272
aF0.3779644730092272
aF0.7559289460184544
aF0.3779644730092272
aF0.41602514716892186
aF0.41602514716892186
aF0.69337524528153649
aF0.41602514716892186
aF0.31622776601683794
aF0.63245553203367588
aF0.63245553203367588
aF0.31622776601683794
aF0.64622084499065136
aF0.44060512158453502
aF0.44060512158453502
aF0.44060512158453502
aF0.2857142857142857
aF0.7142857142857143
aF0.5714285714285714
aF0.2857142857142857
aF0.5
aF0.5
aF0.5
aF0.5
aF0.3779644730092272
aF0.3779644730092272
aF0.7559289460184544
aF0.3779644730092272
aF0.54272042023997447
aF0.42211588240886905
aF0.54272042023997447
aF0.48241815132442173
aF0.47961646018645893
aF0.47961646018645893
aF0.51958449853533051
aF0.51958449853533051
aF0.56195148694901642
aF0.46829290579084698
aF0.1873171623163388
aF0.65561006810718581
aF0.28867513459481292
aF0.28867513459481292
aF0.28867513459481292
aF0.86602540378443871
aF0.5
aF0.5
aF0.5
aF0.5
aF0.43643578047198478
aF0.43643578047198478
aF0.6546536707079772
aF0.43643578047198478
aF0.5
aF0.5
aF0.5
aF0.5
aF0.6546536707079772
aF0.43643578047198478
aF0.43643578047198478
aF0.43643578047198478
aF0.52414241836095921
aF0.52414241836095921
aF0.52414241836095921
aF0.41931393468876732
aF0.56694670951384085
aF0.56694670951384085
aF0.56694670951384085
aF0.1889822365046136
aF0.80178372573727319
aF0
aF0.2672612419124244
aF0.53452248382484879
aF0.5212860351426869
aF0.31277162108561218
aF0.31277162108561218
aF0.72980044919976172
aF0.34412360080584259
aF0.80295506854696608
aF0.34412360080584259
aF0.34412360080584259
aF0.6546536707079772
aF0.43643578047198478
aF0.43643578047198478
aF0.43643578047198478
aF0.54554472558998102
aF0.54554472558998102
aF0.54554472558998102
aF0.3273268353539886
aF0.31622776601683794
aF0.63245553203367588
aF0.63245553203367588
aF0.31622776601683794
aF0.6546536707079772
aF0.43643578047198478
aF0.43643578047198478
aF0.43643578047198478
aF0.41099746826339323
aF0.57539645556875052
aF0.41099746826339323
aF0.57539645556875052
aF0.26490647141300877
aF0.52981294282601754
aF0.79471941423902626
aF0.13245323570650439
aF0.5
aF0.5
aF0.5
aF0.5
aF0.39785412693524042
aF0.72466287406061636
aF0.39785412693524042
aF0.39785412693524042
aF0.47759592647116123
aF0.47759592647116123
aF0.47759592647116123
aF0.56187756055430738
aF0.457495710997814
aF0.457495710997814
aF0.457495710997814
aF0.60999428133041866
aF0.54554472558998102
aF0.54554472558998102
aF0.54554472558998102
aF0.3273268353539886
aF0.38910393105040525
aF0.38910393105040525
aF0.30263639081698185
aF0.7782078621008105
aF0.37748543039212529
aF0.67947377470582559
aF0.50331390718950042
aF0.37748543039212529
aF0.45987851727683643
aF0.45987851727683643
aF0.56207374333835569
aF0.51097613030759603
aF0.49805824509175228
aF0.49805824509175228
aF0.5603155257282213
aF0.43580096445528327
aF0.55815630565143803
aF0.55815630565143803
aF0.43412157106222965
aF0.43412157106222965
aF0.43643578047198478
aF0.6546536707079772
aF0.43643578047198478
aF0.43643578047198478
aF0.5
aF0.5
aF0.5
aF0.5
aF0.62217101683825515
aF0.4147806778921701
aF0.4147806778921701
aF0.51847584736521268
aF0.26940795304016235
aF0.26940795304016235
aF0.44901325506693729
aF0.80822385912048711
aF0.5
aF0.5
aF0.5
aF0.5
aF0.5
aF0.5
aF0.5
aF0.5
aF0.63012603781260434
aF0.4900980294098034
aF0.4900980294098034
aF0.35007002100700241
aF0.60999428133041866
aF0.457495710997814
aF0.457495710997814
aF0.457495710997814
aF0.46358632497276531
aF0.46358632497276531
aF0.59603956067926966
aF0.46358632497276531
aF0.46816458878452227
aF0.46816458878452227
aF0.46816458878452227
aF0.58520573598065284
aF0.62217101683825515
aF0.4147806778921701
aF0.51847584736521268
aF0.4147806778921701
aF0.58520573598065284
aF0.46816458878452227
aF0.46816458878452227
aF0.46816458878452227
aF0.63245553203367588
aF0.63245553203367588
aF0.31622776601683794
aF0.31622776601683794
aF0.457495710997814
aF0.60999428133041866
aF0.457495710997814
aF0.457495710997814
aF0.7559289460184544
aF0.3779644730092272
aF0.3779644730092272
aF0.3779644730092272
aF0.3847547969505189
aF0.3847547969505189
aF0.43971976794345013
aF0.7145446229081065
aF0.3779644730092272
aF0.7559289460184544
aF0.3779644730092272
aF0.3779644730092272
aF0.52026598171447191
aF0.43355498476205995
aF0.52026598171447191
aF0.52026598171447191
aF0.5
aF0.5
aF0.5
aF0.5
aF0.3779644730092272
aF0.3779644730092272
aF0.3779644730092272
aF0.7559289460184544
aF0.62217101683825515
aF0.4147806778921701
aF0.4147806778921701
aF0.51847584736521268
aF0.5
aF0.5
aF0.5
aF0.5
aF0.5
aF0.5
aF0.5
aF0.5
aF0.43643578047198478
aF0.43643578047198478
aF0.6546536707079772
aF0.43643578047198478
aF0.31622776601683794
aF0.63245553203367588
aF0.63245553203367588
aF0.31622776601683794
aF0.5
aF0.5
aF0.5
aF0.5
aF0.35921060405354982
aF0.5388159060803247
aF0.5388159060803247
aF0.5388159060803247
aF0.64715022892943397
aF0.55470019622522904
aF0.36980013081681934
aF0.36980013081681934
aF0.3779644730092272
aF0.3779644730092272
aF0.3779644730092272
aF0.7559289460184544
aF0.32444284226152509
aF0.64888568452305018
aF0.48666426339228763
aF0.48666426339228763
aF0.5
aF0.5
aF0.5
aF0.5
aF0.3481553119113957
aF0.5222329678670935
aF0.69631062382279141
aF0.3481553119113957
aF0.40000000000000002
aF0.20000000000000001
aF0.40000000000000002
aF0.80000000000000004
aF0.54772255750516607
aF0.18257418583505536
aF0.73029674334022143
aF0.36514837167011072
aF0.47172817652486326
aF0.47172817652486326
aF0.47172817652486326
aF0.57655666019705509
aF0.56568542494923801
aF0.42426406871192851
aF0.42426406871192851
aF0.56568542494923801
aF0.3481553119113957
aF0.69631062382279141
aF0.3481553119113957
aF0.5222329678670935
aF0.5
aF0.5
aF0.5
aF0.5
aF0.40032038451271784
aF0.40032038451271784
aF0.40032038451271784
aF0.7205766921228921
aF0.3779644730092272
aF0.3779644730092272
aF0.7559289460184544
aF0.3779644730092272
aF0.5
aF0.5
aF0.5
aF0.5
aF0.43643578047198478
aF0.6546536707079772
aF0.43643578047198478
aF0.43643578047198478
aF0.50901929472102225
aF0.50901929472102225
aF0.55529377605929697
aF0.41647033204447276
aF0.51465023546566535
aF0.44112877325628463
aF0.58817169767504618
aF0.44112877325628463
aF0.56569581431579541
aF0.35998824547368796
aF0.56569581431579541
aF0.47998432729825063
aF0.64888568452305018
aF0.48666426339228763
aF0.32444284226152509
aF0.48666426339228763
aF0.5792844463634923
aF0.40549911245444459
aF0.40549911245444459
aF0.5792844463634923
aF0.44721359549995793
aF0.59628479399994394
aF0.59628479399994394
aF0.29814239699997197
aF0.43643578047198478
aF0.43643578047198478
aF0.6546536707079772
aF0.43643578047198478
aF0.5388159060803247
aF0.35921060405354982
aF0.5388159060803247
aF0.5388159060803247
aF0.18257418583505536
aF0.54772255750516607
aF0.36514837167011072
aF0.73029674334022143
aF0.5
aF0.5
aF0.5
aF0.5
aF0.5
aF0.5
aF0.5
aF0.5
aF0.5
aF0.5
aF0.5
aF0.5
aF0.5
aF0.5
aF0.5
aF0.5
aF0.21320071635561041
aF0.85280286542244166
aF0.21320071635561041
aF0.42640143271122083
aF0.56011203361120387
aF0.14002800840280097
aF0.42008402520840293
aF0.70014004201400482
aF0.58834840541455213
aF0.39223227027636809
aF0.58834840541455213
aF0.39223227027636809
aF0.39223227027636809
aF0.39223227027636809
aF0.58834840541455213
aF0.58834840541455213
aF0.53528772757218923
aF0.53528772757218923
aF0.37470140930053242
aF0.53528772757218923
aF0.63245553203367588
aF0.31622776601683794
aF0.31622776601683794
aF0.63245553203367588
aF0.5
aF0.5
aF0.5
aF0.5
aF0.5388159060803247
aF0.5388159060803247
aF0.5388159060803247
aF0.35921060405354982
aF0.44339817517393193
aF0.6404640308067906
aF0.44339817517393193
aF0.44339817517393193
aF0.41602514716892186
aF0.41602514716892186
aF0.41602514716892186
aF0.69337524528153649
aF0.3779644730092272
aF0.3779644730092272
aF0.3779644730092272
aF0.7559289460184544
aF0.457495710997814
aF0.60999428133041866
aF0.457495710997814
aF0.457495710997814
aF0.41602514716892186
aF0.41602514716892186
aF0.41602514716892186
aF0.69337524528153649
aF0.457495710997814
aF0.457495710997814
aF0.60999428133041866
aF0.457495710997814
aF0.6546536707079772
aF0.43643578047198478
aF0.43643578047198478
aF0.43643578047198478
aF0.41931393468876732
aF0.52414241836095921
aF0.52414241836095921
aF0.52414241836095921
aF0.77615052570633281
aF0.31046021028253312
aF0.3880752628531664
aF0.3880752628531664
aF0.5
aF0.5
aF0.5
aF0.5
aF0.3779644730092272
aF0.3779644730092272
aF0.7559289460184544
aF0.3779644730092272
aF0.6546536707079772
aF0.43643578047198478
aF0.43643578047198478
aF0.43643578047198478
aF0.46816458878452227
aF0.46816458878452227
aF0.58520573598065284
aF0.46816458878452227
aF0.27378998855776526
aF0.82136996567329579
aF0.20534249141832395
aF0.45631664759627538
aF0.94311912514301521
aF0.29019050004400465
aF0.14509525002200233
aF0.072547625011001163
aF0.45510409919085942
aF0.45510409919085942
aF0.5119921115897168
aF0.56888012398857424
aF0.7559289460184544
aF0.3779644730092272
aF0.3779644730092272
aF0.3779644730092272
aF0.28867513459481287
aF0.28867513459481287
aF0.8660254037844386
aF0.28867513459481287
aF0.3779644730092272
aF0.7559289460184544
aF0.3779644730092272
aF0.3779644730092272
aF0.52981294282601754
aF0.39735970711951313
aF0.52981294282601754
aF0.52981294282601754
aF0.43355498476205995
aF0.52026598171447191
aF0.52026598171447191
aF0.52026598171447191
aF0.43643578047198478
aF0.43643578047198478
aF0.43643578047198478
aF0.6546536707079772
aF0.46281225543078786
aF0.35600942725445223
aF0.640816969058014
aF0.49841319815623308
aF0.44901325506693729
aF0.62861855709371217
aF0.44901325506693729
aF0.44901325506693729
aF0.60343671096136009
aF0.46933966408105787
aF0.35759212501413934
aF0.53638818752120898
aF0.5
aF0.5
aF0.5
aF0.5
aF0.44112877325628463
aF0.51465023546566535
aF0.44112877325628463
aF0.58817169767504618
aF0.45267873021259269
aF0.45267873021259269
aF0.54321447625511121
aF0.54321447625511121
aF0.5119921115897168
aF0.45510409919085942
aF0.45510409919085942
aF0.56888012398857424
aF0.58520573598065284
aF0.46816458878452227
aF0.46816458878452227
aF0.46816458878452227
aF0.39605901719066977
aF0.4950737714883372
aF0.4950737714883372
aF0.59408852578600457
aF0.43033148291193524
aF0.43033148291193524
aF0.60246407607670927
aF0.51639777949432231
aF0.3916302249939787
aF0.54828231499157021
aF0.6266083599903659
aF0.3916302249939787
aF0.5
aF0.5
aF0.5
aF0.5
aF0.5
aF0.5
aF0.5
aF0.5
aF0.457495710997814
aF0.457495710997814
aF0.457495710997814
aF0.60999428133041866
aF0.43643578047198478
aF0.6546536707079772
aF0.43643578047198478
aF0.43643578047198478
aF0.5
aF0.5
aF0.5
aF0.5
aF0.39056673294247163
aF0.52075564392329554
aF0.39056673294247163
aF0.6509445549041194
aF0.46168788545980899
aF0.46168788545980899
aF0.490543378301047
aF0.57710985682476124
aF0.39056673294247163
aF0.39056673294247163
aF0.6509445549041194
aF0.52075564392329554
aF0.62114955659127968
aF0.44367825470805694
aF0.62114955659127968
aF0.17747130188322277
aF0.43643578047198478
aF0.43643578047198478
aF0.43643578047198478
aF0.6546536707079772
aF0.58834840541455213
aF0.39223227027636809
aF0.39223227027636809
aF0.58834840541455213
aF0.5
aF0.5
aF0.5
aF0.5
aF0.60999428133041866
aF0.457495710997814
aF0.457495710997814
aF0.457495710997814
aF0.60633906259083248
aF0.60633906259083248
aF0.36380343755449945
aF0.36380343755449945
aF0.457495710997814
aF0.60999428133041866
aF0.457495710997814
aF0.457495710997814
aF0.39223227027636809
aF0.39223227027636809
aF0.58834840541455213
aF0.58834840541455213
aF0.41602514716892186
aF0.41602514716892186
aF0.69337524528153649
aF0.41602514716892186
aF0.42426406871192851
aF0.42426406871192851
aF0.56568542494923801
aF0.56568542494923801
aF0.43643578047198478
aF0.43643578047198478
aF0.6546536707079772
aF0.43643578047198478
aF0.72199487238115534
aF0.41256849850351734
aF0.51571062312939664
aF0.20628424925175867
aF0.58834840541455213
aF0.39223227027636809
aF0.39223227027636809
aF0.58834840541455213
aF0.5644325210301584
aF0.5644325210301584
aF0.47036043419179863
aF0.37628834735343891
aF0.56568542494923801
aF0.56568542494923801
aF0.42426406871192851
aF0.42426406871192851
aF0.46429393952048209
aF0.38691161626706844
aF0.69644090928072311
aF0.38691161626706844
aF0.39440531887330771
aF0.61977978680091217
aF0.45074893585520881
aF0.50709255283710997
aF0.3779644730092272
aF0.3779644730092272
aF0.3779644730092272
aF0.7559289460184544
aF0.58651839038916065
aF0.61584430990861871
aF0.3519110342334964
aF0.39101226025944047
aF0.5
aF0.5
aF0.5
aF0.5
aF0.43246144425065081
aF0.61780206321521547
aF0.4942416505721724
aF0.43246144425065081
aF0.42579703632987959
aF0.47902166587111455
aF0.63869555449481941
aF0.42579703632987959
aF0.5
aF0.5
aF0.5
aF0.5
aF0.85280286542244166
aF0.42640143271122083
aF0.21320071635561041
aF0.21320071635561041
aF0.30769230769230771
aF0.84615384615384615
aF0.30769230769230771
aF0.30769230769230771
aF0.52075564392329554
aF0.39056673294247163
aF0.39056673294247163
aF0.6509445549041194
aF0.62622429108514954
aF0.18786728732554486
aF0.68884672019366444
aF0.31311214554257477
aF0.51875647490395438
aF0.51875647490395438
aF0.51875647490395438
aF0.43894778645719218
aF0.52075564392329554
aF0.39056673294247163
aF0.39056673294247163
aF0.6509445549041194
aF0.54193110299036129
aF0.54193110299036129
aF0.54193110299036129
aF0.34486524735750262
aF0.52203689766387451
aF0.52203689766387451
aF0.52203689766387451
aF0.42712109808862458
aF0.58834840541455213
aF0.39223227027636809
aF0.39223227027636809
aF0.58834840541455213
aF0.59603956067926966
aF0.46358632497276531
aF0.46358632497276531
aF0.46358632497276531
aF0.5
aF0.5
aF0.5
aF0.5
aF0.19156525704423027
aF0.38313051408846055
aF0.47891314261057566
aF0.7662610281769211
aF0.29002094671369905
aF0.29002094671369905
aF0.77338919123653083
aF0.48336824452283178
aF0.5
aF0.5
aF0.5
aF0.5
aF0.457495710997814
aF0.60999428133041866
aF0.457495710997814
aF0.457495710997814
aF0.34065502384700908
aF0.52990781487312522
aF0.52990781487312522
aF0.56775837307834853
aF0.48199078055518124
aF0.42528598284280705
aF0.5954003759799299
aF0.48199078055518124
aF0.31622776601683794
aF0.31622776601683794
aF0.63245553203367588
aF0.63245553203367588
aF0.62554324217122437
aF0.20851441405707477
aF0.41702882811414954
aF0.62554324217122437
aF0.46816458878452227
aF0.58520573598065284
aF0.46816458878452227
aF0.46816458878452227
aF0.45074893585520881
aF0.50709255283710997
aF0.39440531887330771
aF0.61977978680091217
aF0.46816458878452227
aF0.46816458878452227
aF0.58520573598065284
aF0.46816458878452227
aF0.4950737714883372
aF0.59408852578600457
aF0.39605901719066977
aF0.4950737714883372
aF0.23570226039551587
aF0.70710678118654757
aF0.47140452079103173
aF0.47140452079103173
aF0.35082320772281167
aF0.61394061351492046
aF0.35082320772281167
aF0.61394061351492046
aF0.62217101683825515
aF0.4147806778921701
aF0.51847584736521268
aF0.4147806778921701
aF0.36380343755449945
aF0.60633906259083248
aF0.36380343755449945
aF0.60633906259083248
aF0.59962535119668914
aF0.37476584449793071
aF0.59962535119668914
aF0.37476584449793071
aF0.457495710997814
aF0.457495710997814
aF0.60999428133041866
aF0.457495710997814
aF0.5
aF0.5
aF0.5
aF0.5
aF0.46291004988627571
aF0.77151674981045948
aF0.30860669992418382
aF0.30860669992418382
aF0.5
aF0.5
aF0.5
aF0.5
aF0.5
aF0.5
aF0.5
aF0.5
aF0.46816458878452227
aF0.58520573598065284
aF0.46816458878452227
aF0.46816458878452227
aF0.64888568452305018
aF0.48666426339228763
aF0.32444284226152509
aF0.48666426339228763
aF0.5
aF0.5
aF0.5
aF0.5
aF0.55470019622522915
aF0.55470019622522915
aF0.27735009811261457
aF0.55470019622522915
aF0.49656353316142077
aF0.41380294430118397
aF0.57932412202165751
aF0.49656353316142077
aF0.65275336576821963
aF0.37300192329612553
aF0.46625240412015689
aF0.46625240412015689
aF0.52174919474995085
aF0.67082039324993692
aF0.37267799624996495
aF0.37267799624996495
aF0.5
aF0.5
aF0.5
aF0.5
aF0.43643578047198478
aF0.43643578047198478
aF0.6546536707079772
aF0.43643578047198478
aF0.50872931212664096
aF0.46959628811689941
aF0.54786233613638258
aF0.46959628811689941
aF0.51073293043697665
aF0.51073293043697665
aF0.51073293043697665
aF0.46632137126854389
aF0.5
aF0.5
aF0.5
aF0.5
aF0.53215208419019144
aF0.46563307366641754
aF0.53215208419019144
aF0.46563307366641754
aF0.49788681843744187
aF0.49788681843744187
aF0.43294505951081902
aF0.56282857736406466
aF0.74926864926535519
aF0.46829290579084698
aF0.28097574347450821
aF0.3746343246326776
aF0.63245553203367588
aF0.31622776601683794
aF0.63245553203367588
aF0.31622776601683794
aF0.43643578047198478
aF0.43643578047198478
aF0.6546536707079772
aF0.43643578047198478
aF0.45218673515537722
aF0.45218673515537722
aF0.62175676083864362
aF0.45218673515537722
aF0.46816458878452227
aF0.46816458878452227
aF0.46816458878452227
aF0.58520573598065284
aF0.58520573598065284
aF0.46816458878452227
aF0.46816458878452227
aF0.46816458878452227
aF0.19245008972987526
aF0.57735026918962573
aF0.19245008972987526
aF0.76980035891950105
aF0.37099111660813466
aF0.37099111660813466
aF0.41736500618415145
aF0.74198223321626933
aF0.48666426339228763
aF0.64888568452305018
aF0.32444284226152509
aF0.48666426339228763
aF0.58834840541455213
aF0.39223227027636809
aF0.39223227027636809
aF0.58834840541455213
aF0.39223227027636809
aF0.58834840541455213
aF0.39223227027636809
aF0.58834840541455213
aF0.43643578047198478
aF0.43643578047198478
aF0.43643578047198478
aF0.6546536707079772
aF0.46358632497276531
aF0.46358632497276531
aF0.46358632497276531
aF0.59603956067926966
aF0.5
aF0.5
aF0.5
aF0.5
aF0.51011278533618509
aF0.4637388957601683
aF0.55648667491220194
aF0.4637388957601683
aF0.44905020936970891
aF0.51320023927966729
aF0.57735026918962573
aF0.44905020936970891
aF0.41602514716892186
aF0.41602514716892186
aF0.69337524528153649
aF0.41602514716892186
aF0.5
aF0.5
aF0.5
aF0.5
aF0.5
aF0.5
aF0.5
aF0.5
aF0.5
aF0.5
aF0.5
aF0.5
aF0.43643578047198478
aF0.6546536707079772
aF0.43643578047198478
aF0.43643578047198478
aF0.70143062383189436
aF0.6312875614487049
aF0.17535765595797356
aF0.28057224953275772
aF0.5388159060803247
aF0.35921060405354982
aF0.5388159060803247
aF0.5388159060803247
aF0.48949020986880254
aF0.48949020986880254
aF0.48949020986880254
aF0.53028106069120273
aF0.57655666019705509
aF0.47172817652486326
aF0.47172817652486326
aF0.47172817652486326
aF0.46358632497276531
aF0.46358632497276531
aF0.46358632497276531
aF0.59603956067926966
aF0.45485882614734202
aF0.6064784348631227
aF0.37904902178945171
aF0.53066863050523239
aF0.54554472558998102
aF0.54554472558998102
aF0.3273268353539886
aF0.54554472558998102
aF0.56568542494923801
aF0.42426406871192851
aF0.56568542494923801
aF0.42426406871192851
aF0.37152142470399263
aF0.58381938167770275
aF0.42459591394742019
aF0.58381938167770275
aF0.55470019622522915
aF0.55470019622522915
aF0.27735009811261457
aF0.55470019622522915
aF0.5388159060803247
aF0.5388159060803247
aF0.5388159060803247
aF0.35921060405354982
aF0.39056673294247163
aF0.52075564392329554
aF0.6509445549041194
aF0.39056673294247163
aF0.43643578047198478
aF0.43643578047198478
aF0.43643578047198478
aF0.6546536707079772
aF0.76980035891950105
aF0.19245008972987526
aF0.19245008972987526
aF0.57735026918962584
aF0.43643578047198478
aF0.6546536707079772
aF0.43643578047198478
aF0.43643578047198478
aF0.5
aF0.5
aF0.5
aF0.5
aF0.47063159926639775
aF0.47063159926639775
aF0.57923889140479723
aF0.47063159926639775
aF0.5
aF0.5
aF0.5
aF0.5
aF0.43759497449368367
aF0.43759497449368367
aF0.29172998299578912
aF0.72932495748947279
aF0.51847584736521268
aF0.4147806778921701
aF0.4147806778921701
aF0.62217101683825515
aF0.66519010523773936
aF0.19955703157132179
aF0.39911406314264358
aF0.5986710947139654
aF0.56694670951384085
aF0.1889822365046136
aF0.56694670951384085
aF0.56694670951384085
aF0.62554324217122437
aF0.41702882811414954
aF0.20851441405707477
aF0.62554324217122437
aF0.47902166587111455
aF0.42579703632987959
aF0.42579703632987959
aF0.63869555449481941
aF0.21320071635561041
aF0.42640143271122083
aF0.21320071635561041
aF0.85280286542244166
aF0.43643578047198478
aF0.43643578047198478
aF0.43643578047198478
aF0.6546536707079772
aF0.44901325506693729
aF0.62861855709371217
aF0.44901325506693729
aF0.44901325506693729
aF0.3779644730092272
aF0.7559289460184544
aF0.3779644730092272
aF0.3779644730092272
aF0.5
aF0.5
aF0.5
aF0.5
aF0.5
aF0.5
aF0.5
aF0.5
aF0.5
aF0.5
aF0.5
aF0.5
aF0.43643578047198478
aF0.43643578047198478
aF0.43643578047198478
aF0.6546536707079772
aF0.5
aF0.5
aF0.5
aF0.5
aF0.5
aF0.5
aF0.5
aF0.5
aF0.4635863249727652
aF0.46358632497276531
aF0.46358632497276531
aF0.59603956067926966
aF0.31622776601683794
aF0.63245553203367588
aF0.63245553203367588
aF0.31622776601683794
aF0.35714285714285715
aF0.7857142857142857
aF0.35714285714285715
aF0.35714285714285715
aF0.31622776601683794
aF0.63245553203367588
aF0.63245553203367588
aF0.31622776601683794
aF0.49100143668232604
aF0.52607296787392077
aF0.49100143668232604
aF0.49100143668232604
aF0.49409660533043642
aF0.55110775209933294
aF0.49409660533043642
aF0.45608917415117212
aF0.46816458878452227
aF0.58520573598065284
aF0.46816458878452227
aF0.46816458878452227
aF0.43643578047198478
aF0.43643578047198478
aF0.6546536707079772
aF0.43643578047198478
aF0.60553007081949839
aF0.44038550605054427
aF0.49543369430686229
aF0.44038550605054427
aF0.21320071635561041
aF0.21320071635561041
aF0.85280286542244166
aF0.42640143271122083
aF0.57539645556875052
aF0.57539645556875052
aF0.41099746826339323
aF0.41099746826339323
aF0.37426971693108319
aF0.49902628924144427
aF0.37426971693108319
aF0.68616114770698577
aF0.58881650032940813
aF0.42823018205775137
aF0.42823018205775137
aF0.53528772757218923
aF0.46816458878452227
aF0.46816458878452227
aF0.58520573598065284
aF0.46816458878452227
aF0.5
aF0.5
aF0.5
aF0.5
aF0.51465023546566535
aF0.58817169767504618
aF0.44112877325628463
aF0.44112877325628463
aF0.457495710997814
aF0.60999428133041866
aF0.457495710997814
aF0.457495710997814
aF0.48049382612047237
aF0.48049382612047237
aF0.48049382612047237
aF0.55441595321592962
aF0.5
aF0.5
aF0.5
aF0.5
aF0.52414241836095921
aF0.52414241836095921
aF0.52414241836095921
aF0.41931393468876732
aF0.24618298195866545
aF0.24618298195866545
aF0.3692744729379982
aF0.86164043685532909
aF0.5
aF0.5
aF0.5
aF0.5
aF0.5388159060803247
aF0.5388159060803247
aF0.35921060405354982
aF0.5388159060803247
aF0.31622776601683794
aF0.63245553203367588
aF0.31622776601683794
aF0.63245553203367588
aF0.36380343755449945
aF0.60633906259083248
aF0.60633906259083248
aF0.36380343755449945
aF0.43643578047198478
aF0.43643578047198478
aF0.6546536707079772
aF0.43643578047198478
aF0.5
aF0.5
aF0.5
aF0.5
aF0.5
aF0.5
aF0.5
aF0.5
aF0.5
aF0.5
aF0.5
aF0.5
aF0.84345274620426347
aF0.3027779088938381
aF0.3027779088938381
aF0.32440490238625519
aF0.27735009811261457
aF0.55470019622522915
aF0.55470019622522915
aF0.55470019622522915
aF0.48038446141526137
aF0.32025630761017426
aF0.80064076902543568
aF0.16012815380508713
aF0.39223227027636809
aF0.58834840541455213
aF0.39223227027636809
aF0.58834840541455213
aF0.43412157106222965
aF0.55815630565143803
aF0.43412157106222965
aF0.55815630565143803
aF0.47087095579741872
aF0.67267279399631241
aF0.40360367639778749
aF0.40360367639778749
aF0.47457899787624952
aF0.47457899787624952
aF0.47457899787624952
aF0.56949479745149945
aF0.42426406871192851
aF0.56568542494923801
aF0.42426406871192851
aF0.56568542494923801
aF0.5
aF0.5
aF0.5
aF0.5
aF0.52981294282601754
aF0.52981294282601754
aF0.39735970711951313
aF0.52981294282601754
aF0.56568542494923801
aF0.42426406871192851
aF0.42426406871192851
aF0.56568542494923801
aF0.25916052767440806
aF0.51832105534881612
aF0.43193421279068006
aF0.69109474046508812
aF0.53125320249085972
aF0.4131969352706687
aF0.64930946971105086
aF0.35416880166057318
aF0.5
aF0.5
aF0.5
aF0.5
aF0.5
aF0.5
aF0.5
aF0.5
aF0.46816458878452227
aF0.46816458878452227
aF0.58520573598065284
aF0.46816458878452227
aF0.55631920616421315
aF0.51923125908659884
aF0.55631920616421315
aF0.33379152369852788
aF0.5644325210301584
aF0.37628834735343891
aF0.5644325210301584
aF0.47036043419179863
aF0.5
aF0.5
aF0.5
aF0.5
aF0.457495710997814
aF0.457495710997814
aF0.457495710997814
aF0.60999428133041866
aF0.54470477940192219
aF0.48418202613504197
aF0.48418202613504197
aF0.48418202613504197
aF0.58834840541455213
aF0.58834840541455213
aF0.39223227027636809
aF0.39223227027636809
aF0.5
aF0.5
aF0.5
aF0.5
aF0.5
aF0.5
aF0.5
aF0.5
aF0.31622776601683794
aF0.63245553203367588
aF0.63245553203367588
aF0.31622776601683794
aF0.43643578047198478
aF0.43643578047198478
aF0.43643578047198478
aF0.6546536707079772
aF0.2581988897471611
aF0.2581988897471611
aF0.7745966692414834
aF0.5163977794943222
aF0.63245553203367588
aF0.31622776601683794
aF0.63245553203367588
aF0.31622776601683794
aF0.31622776601683794
aF0.63245553203367588
aF0.31622776601683794
aF0.63245553203367588
aF0.5
aF0.5
aF0.5
aF0.5
aF0.63245553203367588
aF0.31622776601683794
aF0.63245553203367588
aF0.31622776601683794
aF0.56568542494923801
aF0.42426406871192851
aF0.42426406871192851
aF0.56568542494923801
aF0.61812253776910064
aF0.61812253776910064
aF0.34340140987172257
aF0.34340140987172257
aF0.40991219141109303
aF0.68318698568515501
aF0.40991219141109303
aF0.44407154069535076
aF0.61545745489666359
aF0.4923659639173309
aF0.3692744729379982
aF0.4923659639173309
aF0.6925433610644437
aF0.31164451247899966
aF0.58866185690477713
aF0.27701734442577747
aF0.43643578047198478
aF0.6546536707079772
aF0.43643578047198478
aF0.43643578047198478
aF0.43643578047198478
aF0.43643578047198478
aF0.6546536707079772
aF0.43643578047198478
aF0.5
aF0.5
aF0.5
aF0.5
aF0.5222329678670935
aF0.3481553119113957
aF0.69631062382279141
aF0.3481553119113957
aF0.4147806778921701
aF0.51847584736521268
aF0.4147806778921701
aF0.62217101683825515
aF0.43643578047198478
aF0.43643578047198478
aF0.6546536707079772
aF0.43643578047198478
aF0.69337524528153649
aF0.41602514716892186
aF0.41602514716892186
aF0.41602514716892186
aF0.5
aF0.5
aF0.5
aF0.5
aF0.55074271265721142
aF0.48189987357505998
aF0.48189987357505998
aF0.48189987357505998
aF0.3779644730092272
aF0.3779644730092272
aF0.7559289460184544
aF0.3779644730092272
aF0.5
aF0.5
aF0.5
aF0.5
aF0.5
aF0.5
aF0.5
aF0.5
aF0.3779644730092272
aF0.3779644730092272
aF0.3779644730092272
aF0.7559289460184544
aF0.5
aF0.5
aF0.5
aF0.5
aF0.56949479745149945
aF0.47457899787624952
aF0.47457899787624952
aF0.47457899787624952
aF0.68824720161168529
aF0.38235955645093628
aF0.30588764516074901
aF0.53530337903131076
aF0.46816458878452227
aF0.46816458878452227
aF0.46816458878452227
aF0.58520573598065284
aF0.56694670951384085
aF0.1889822365046136
aF0.56694670951384085
aF0.56694670951384085
aF0.44901325506693729
aF0.44901325506693729
aF0.44901325506693729
aF0.62861855709371217
aF0.5
aF0.5
aF0.5
aF0.5
aF0.46358632497276531
aF0.46358632497276531
aF0.46358632497276531
aF0.59603956067926966
aF0.46816458878452227
aF0.46816458878452227
aF0.58520573598065284
aF0.46816458878452227
aF0.57539645556875052
aF0.41099746826339323
aF0.57539645556875052
aF0.41099746826339323
aF0.5
aF0.5
aF0.5
aF0.5
aF0.48189987357505998
aF0.55074271265721142
aF0.48189987357505998
aF0.48189987357505998
aF0.5
aF0.5
aF0.5
aF0.5
aF0.457495710997814
aF0.60999428133041866
aF0.457495710997814
aF0.457495710997814
aF0.47087095579741872
aF0.40360367639778749
aF0.40360367639778749
aF0.67267279399631241
aF0.4892509742832446
aF0.4892509742832446
aF0.51052275577382045
aF0.51052275577382045
aF0.42759305524706825
aF0.6719319439596787
aF0.42759305524706825
aF0.42759305524706825
aF0.5
aF0.5
aF0.5
aF0.5
aF0.64888568452305018
aF0.48666426339228763
aF0.48666426339228763
aF0.32444284226152509
aF0.48666426339228763
aF0.64888568452305018
aF0.32444284226152509
aF0.48666426339228763
aF0.457495710997814
aF0.457495710997814
aF0.60999428133041866
aF0.457495710997814
aF0.47352027758819076
aF0.47352027758819076
aF0.28937350297056103
aF0.68397373429405339
aF0.47457899787624952
aF0.47457899787624952
aF0.47457899787624952
aF0.56949479745149945
aF0.46168788545980899
aF0.490543378301047
aF0.57710985682476124
aF0.46168788545980899
aF0.46354060067683006
aF0.43627350651936947
aF0.54534188314921184
aF0.54534188314921184
aF0.56546617309445069
aF0.47618204050059004
aF0.47618204050059004
aF0.47618204050059004
aF0.4492518698068122
aF0.51580770237078433
aF0.51580770237078433
aF0.51580770237078433
aF0.6546536707079772
aF0.43643578047198478
aF0.43643578047198478
aF0.43643578047198478
aF0.47885213068057331
aF0.47885213068057331
aF0.47885213068057331
aF0.55866081912733556
aF0.5
aF0.5
aF0.5
aF0.5
aF0.51532530112066466
aF0.51532530112066466
aF0.51532530112066466
aF0.45090963848058158
aF0.43643578047198478
aF0.43643578047198478
aF0.43643578047198478
aF0.6546536707079772
aF0.63245553203367588
aF0.31622776601683794
aF0.63245553203367588
aF0.31622776601683794
aF0.42954656391301288
aF0.42954656391301288
aF0.6681835438646867
aF0.42954656391301288
aF0.54554472558998102
aF0.3273268353539886
aF0.54554472558998102
aF0.54554472558998102
aF0.27735009811261457
aF0.55470019622522915
aF0.55470019622522915
aF0.55470019622522915
aF0.43759497449368367
aF0.43759497449368367
aF0.29172998299578912
aF0.72932495748947279
aF0.39757328397294539
aF0.51116565082235832
aF0.6815542010964778
aF0.3407771005482389
aF0.5
aF0.5
aF0.5
aF0.5
aF0.38943390680898837
aF0.68150933691572957
aF0.43811314516011196
aF0.43811314516011196
aF0.43643578047198478
aF0.43643578047198478
aF0.43643578047198478
aF0.6546536707079772
aF0.3779644730092272
aF0.7559289460184544
aF0.3779644730092272
aF0.3779644730092272
aF0.7559289460184544
aF0.3779644730092272
aF0.3779644730092272
aF0.3779644730092272
aF0.4595037486404901
aF0.5743796858006126
aF0.4595037486404901
aF0.49779572769386432
aF0.5
aF0.5
aF0.5
aF0.5
aF0.54554472558998102
aF0.54554472558998102
aF0.3273268353539886
aF0.54554472558998102
aF0.56949479745149945
aF0.47457899787624952
aF0.47457899787624952
aF0.47457899787624952
aF0.5
aF0.5
aF0.5
aF0.5
aF0.50901929472102225
aF0.55529377605929697
aF0.41647033204447276
aF0.50901929472102225
aF0.47457899787624952
aF0.56949479745149945
aF0.47457899787624952
aF0.47457899787624952
aF0.35805743701971643
aF0.64450338663548956
aF0.35805743701971643
aF0.57289189923154638
aF0.30860669992418382
aF0.77151674981045948
aF0.46291004988627571
aF0.30860669992418382
aF0.48418202613504197
aF0.54470477940192219
aF0.48418202613504197
aF0.48418202613504197
aF0.60084176812610968
aF0.48067341450088774
aF0.42058923768827677
aF0.48067341450088774
aF0.43643578047198478
aF0.43643578047198478
aF0.6546536707079772
aF0.43643578047198478
aF0.55436714294018963
aF0.41577535720514225
aF0.58901508937395153
aF0.41577535720514225
aF0.5
aF0.5
aF0.5
aF0.5
aF0.62861855709371217
aF0.44901325506693729
aF0.44901325506693729
aF0.44901325506693729
aF0.63372425052447789
aF0.50697940041958234
aF0.38023455031468678
aF0.44360697536713456
aF0.404145188432738
aF0.63508529610858833
aF0.404145188432738
aF0.51961524227066314
aF0.56568542494923801
aF0.42426406871192851
aF0.56568542494923801
aF0.42426406871192851
aF0.61146856444933817
aF0.42332439077261874
aF0.42332439077261874
aF0.51739647761097851
aF0.56568542494923801
aF0.42426406871192851
aF0.42426406871192851
aF0.56568542494923801
aF0.62217101683825515
aF0.4147806778921701
aF0.51847584736521268
aF0.4147806778921701
aF0.39056673294247163
aF0.6509445549041194
aF0.52075564392329554
aF0.39056673294247163
aF0.44112877325628463
aF0.44112877325628463
aF0.58817169767504618
aF0.51465023546566535
aF0.388954920792207
aF0.388954920792207
aF0.388954920792207
aF0.7390143495051934
aF0.60999428133041866
aF0.457495710997814
aF0.457495710997814
aF0.457495710997814
aF0.48666426339228763
aF0.48666426339228763
aF0.64888568452305018
aF0.32444284226152509
aF0.41602514716892186
aF0.41602514716892186
aF0.69337524528153649
aF0.41602514716892186
aF0.39223227027636809
aF0.58834840541455213
aF0.39223227027636809
aF0.58834840541455213
aF0.404145188432738
aF0.51961524227066314
aF0.63508529610858833
aF0.404145188432738
aF0.5
aF0.5
aF0.5
aF0.5
aF0.57735026918962573
aF0.57735026918962573
aF0.46188021535170054
aF0.34641016151377541
aF0.27735009811261457
aF0.55470019622522915
aF0.55470019622522915
aF0.55470019622522915
aF0.43643578047198478
aF0.43643578047198478
aF0.6546536707079772
aF0.43643578047198478
aF0.5
aF0.5
aF0.5
aF0.5
aF0.5
aF0.5
aF0.5
aF0.5
aF0.38177085778546666
aF0.44539933408304444
aF0.57265628667820001
aF0.57265628667820001
aF0.29019050004400465
aF0.36273812505500586
aF0.50783337507700821
aF0.72547625011001171
aF0.44543540318737396
aF0.53452248382484879
aF0.62360956446232352
aF0.35634832254989918
aF0.43643578047198478
aF0.6546536707079772
aF0.43643578047198478
aF0.43643578047198478
aF0.4673827146373169
aF0.49854156227980467
aF0.4673827146373169
aF0.56085925756478028
aF0.48507125007266594
aF0.48507125007266594
aF0.43656412506539932
aF0.58208550008719906
aF0.41602514716892186
aF0.69337524528153649
aF0.41602514716892186
aF0.41602514716892186
aF0.48112522432468813
aF0.67357531405456339
aF0.48112522432468813
aF0.28867513459481287
aF0.7559289460184544
aF0.3779644730092272
aF0.3779644730092272
aF0.3779644730092272
aF0.54896648356951527
aF0.30498137976084183
aF0.65062694348979577
aF0.42697393166517855
aF0.37011660509880262
aF0.33310494458892237
aF0.66620988917784474
aF0.55517490764820387
aF0.5
aF0.5
aF0.5
aF0.5
aF0.80720735279557498
aF0.33633639699815621
aF0.26906911759852498
aF0.40360367639778749
aF0.38372569501536519
aF0.60299752073843094
aF0.38372569501536519
aF0.58472486859484218
aF0.63869555449481941
aF0.42579703632987959
aF0.47902166587111455
aF0.42579703632987959
aF0.7420271084045722
aF0.46720225343991584
aF0.24734236946819074
aF0.4122372824469846
aF0.37630890450319082
aF0.37630890450319082
aF0.71080570850602709
aF0.45993310550389993
aF0.457495710997814
aF0.457495710997814
aF0.457495710997814
aF0.60999428133041866
aF0.43643578047198478
aF0.6546536707079772
aF0.43643578047198478
aF0.43643578047198478
aF0.55470019622522915
aF0.55470019622522915
aF0.27735009811261457
aF0.55470019622522915
aF0.5
aF0.5
aF0.5
aF0.5
aF0.43643578047198478
aF0.6546536707079772
aF0.43643578047198478
aF0.43643578047198478
aF0.43643578047198478
aF0.6546536707079772
aF0.43643578047198478
aF0.43643578047198478
aF0.457495710997814
aF0.457495710997814
aF0.457495710997814
aF0.60999428133041866
aF0.52925612402496314
aF0.74095857363494833
aF0.26462806201248157
aF0.31755367441497789
aF0.39056673294247163
aF0.6509445549041194
aF0.39056673294247163
aF0.52075564392329554
aF0.49393916995360654
aF0.60370342994329684
aF0.38417490996391618
aF0.49393916995360654
aF0.28643096146990227
aF0.59332127733051188
aF0.53194321415839008
aF0.53194321415838997
aF0.52849819756323313
aF0.46977617561176277
aF0.46977617561176277
aF0.52849819756323313
aF0.49100143668232604
aF0.49100143668232604
aF0.52607296787392077
aF0.49100143668232604
aF0.56046979762699489
aF0.43113061355922683
aF0.43113061355922683
aF0.56046979762699489
aF0.62360956446232352
aF0.35634832254989918
aF0.44543540318737396
aF0.53452248382484879
aF0.54879547245602833
aF0.54879547245602833
aF0.44589632137052299
aF0.44589632137052299
aF0.3880752628531664
aF0.3880752628531664
aF0.77615052570633281
aF0.31046021028253312
aF0.51231551957855992
aF0.51231551957855992
aF0.51231551957855992
aF0.46108396762070392
aF0.7559289460184544
aF0.3779644730092272
aF0.3779644730092272
aF0.3779644730092272
aF0.3779644730092272
aF0.3779644730092272
aF0.3779644730092272
aF0.7559289460184544
aF0.5
aF0.5
aF0.5
aF0.5
aF0.34641016151377541
aF0.46188021535170054
aF0.57735026918962573
aF0.57735026918962573
aF0.62175676083864362
aF0.45218673515537722
aF0.45218673515537722
aF0.45218673515537722
aF0.45599261410537534
aF0.54043569079155596
aF0.54043569079155596
aF0.45599261410537534
aF0.41353196253099489
aF0.69783518677105394
aF0.41353196253099489
aF0.41353196253099489
aF0.45510409919085942
aF0.56888012398857424
aF0.45510409919085942
aF0.5119921115897168
aF0.43652601094711047
aF0.73663764347324889
aF0.22735729736828666
aF0.46380888663130482
aF0.46358632497276531
aF0.46358632497276531
aF0.46358632497276531
aF0.59603956067926966
aF0.59655875900130451
aF0.2711630722733202
aF0.2711630722733202
aF0.70502398791063259
aF0.26407386650992315
aF0.71299943957679246
aF0.58096250632183088
aF0.29048125316091544
aF0.41032714797874187
aF0.58011769196994545
aF0.67916217596481421
aF0.18393975599047049
aF0.43617837214497929
aF0.51548353071679365
aF0.43617837214497929
aF0.59478868928860806
a.