(lp1
F0.501396500834147
aF0.5361012999032273
aF0.45826123647190958
aF0.50119216308775194
aF0.50167275900667885
aF0.55677354054715611
aF0.43260663743695704
aF0.50117777750285408
aF0.35572198781767961
aF0.49698114440830332
aF0.55971279154682585
aF0.55963666826300018
aF0.46404556123580426
aF0.4632609775723453
aF0.59242195001227838
aF0.46806753454999628
aF0.28237883484423293
aF0.79659914058420589
aF0.37767205088915567
aF0.3782272132325975
aF0.90587926889364445
aF0.20340565946069411
aF0.24346017215041477
aF0.28059941636533542
aF0.61098283451808211
aF0.17978142393064234
aF0.20971806524295411
aF0.74188742316100276
aF0.36340150759462192
aF0.43041787839692541
aF0.72475442813817692
aF0.39675031585160675
aF0.88587155774300774
aF0.28064918351608648
aF0.27132485186109179
aF0.25069990773091166
aF-8.8973546595283917e-05
aF-0.010654582204783453
aF0.99993930666866904
aF0.0028026667177509621
aF0.097541293819543781
aF0.98464253260564549
aF0.094954826661609135
aF0.10930855354277423
aF0.70071978700354365
aF0.71341964375236466
aF-0.00086970966184171119
aF0.0048410345032634536
aF0.45461615841829162
aF0.51827658747433503
aF0.53318078250536094
aF0.49033843470395405
aF0.44095560981811016
aF0.53245400712791424
aF0.58739579775572159
aF0.42073395066512664
aF0.5000670853954482
aF0.50010234367442941
aF0.4996252017536727
aF0.50020517163264744
aF0.45736981425320339
aF0.45197505079662065
aF0.45358813848363849
aF0.61708119975764142
aF0.37923949649047795
aF0.40003858744738013
aF0.74765886163305983
aF0.37034140934590437
aF0.50527003435645612
aF0.50111981769542124
aF0.50093320166936761
aF0.49259217224760077
aF0.32142969482792921
aF0.38967105610009861
aF0.31733940563349239
aF0.80258028941211845
aF0.59376283503216165
aF0.53919604978212854
aF0.47545403933164482
aF0.36146475916351922
aF0.44989191065331513
aF0.44627926372115817
aF0.42032144898807133
aF0.64943203418200612
aF0.43835446573914677
aF0.50873223658869626
aF0.48253269683382
aF0.56231581011766929
aF0.77869696928864884
aF0.36038448541599089
aF0.36324617219334482
aF0.36305133394467387
aF0.43025308627832032
aF0.32749395466737646
aF0.33042799430688574
aF0.77359377710955735
aF0.49425784755810986
aF0.4949606640222235
aF0.40166341692939389
aF0.59109188854061223
aF0.55873089548661414
aF0.49994528655300996
aF0.50289107778245967
aF0.43008727110779627
aF0.66811123886183887
aF0.50006989078306252
aF0.36468661393202573
aF0.41299049681258815
aF0.54815479786501231
aF0.63012705209842945
aF0.41287326073020952
aF0.36332063850724894
aF0.42464245864665523
aF0.7001576383033622
aF0.42663666724889576
aF0.38397814781408734
aF0.41299438860874316
aF0.43258863537172182
aF0.65851276459309083
aF0.4567971611042328
aF0.51899739955211022
aF0.61326573107903837
aF0.37187168820544025
aF0.46503579416371355
aF0.44027662162127218
aF0.62701244727657879
aF0.43482178668295152
aF0.4732250006496278
aF0.62843003013404242
aF0.46658518557119577
aF0.51626971042897463
aF0.34761983246760014
aF0.44997007270210249
aF0.45753319064548742
aF0.52233542925467014
aF0.56156567957413872
aF0.60580029537859403
aF0.52720346363936488
aF0.5021614895037293
aF0.32077460701442867
aF0.58952754664068929
aF0.58977306993816514
aF0.37756289116120734
aF0.40258075083827882
aF0.43918882944014354
aF0.46813789383542337
aF0.46783192234780469
aF0.60753055633662423
aF0.45012024222624974
aF0.50281702646229032
aF0.53994478703643833
aF0.50301732812098843
aF0.42595075648836445
aF0.42510499118887729
aF0.53024101564692971
aF0.59724045813977411
aF0.41947395859538716
aF0.38629340803768331
aF0.73951492941063546
aF0.35768235928786091
aF0.57345959830059245
aF0.33054155387671441
aF0.66719266526641763
aF0.34167282258380477
aF0.37203896221315302
aF0.37959556420148233
aF0.4479878954206199
aF0.71888877011017638
aF0.99629800766996512
aF0.048003408466787238
aF0.047590821652187011
aF0.053113711816240687
aF0.68391449365279822
aF0.56266561473989163
aF0.32631385227645326
aF0.33043553255289831
aF0.4809086201791764
aF0.43524703984890994
aF0.7265298271440791
aF0.22680679798038811
aF0.50689528874811207
aF0.46048906230141756
aF0.50846440843575191
aF0.52198748557777719
aF0.37228121626147548
aF0.43722396869816299
aF0.62021315153808831
aF0.53439455823754123
aF0.3837562906843871
aF0.73318985688583982
aF0.37692200597545705
aF0.41604512319136638
aF0.47165350721889721
aF0.47235700156401406
aF0.47104894176606249
aF0.57665824078273653
aF0.44961190052900057
aF0.44173395012953665
aF0.61289391763228751
aF0.47653048374159951
aF0.31453253183436908
aF0.30913004608984623
aF0.31484912362658118
aF0.8404629262340636
aF0.438477471601111
aF0.66070323584647261
aF0.4375108898732249
aF0.42402000221998498
aF0.49378734079088094
aF0.49681984154968362
aF0.50485187058651249
aF0.50444890314333823
aF0.49442937961854666
aF0.48650270800825551
aF0.50235605122883775
aF0.51622969835570554
aF0.38704860470256336
aF0.35306284637351559
aF0.74189655161322443
aF0.41848477966687908
aF0.46207808147108148
aF0.46291059738606566
aF0.61605909483496535
aF0.43894056217533994
aF0.67674325310379813
aF0.42377332559546987
aF0.42515331628416336
aF0.42623866031229807
aF0.80828310869069653
aF0.32908552064932595
aF0.34522936285618533
aF0.34525037773502587
aF0.64597950448815467
aF0.4375402445157307
aF0.43804365512692067
aF0.44652745762539636
aF0.45877125288954174
aF0.45982182012663081
aF0.54088905196574655
aF0.53435181736491577
aF0.65775530721603059
aF0.43648336144684086
aF0.43448584250767452
aF0.43366148511207214
aF0.48796429405354635
aF0.48437265470856417
aF0.45698948001318768
aF0.56430009237698919
aF0.34944554063326905
aF0.7993850647751034
aF0.33184347410698967
aF0.35881923170118668
aF0.49108455863513717
aF0.56357457789578225
aF0.48953228390661224
aF0.44897415786757644
aF0.4640503305558506
aF0.47152914932295797
aF0.57292240318166809
aF0.48381553507748759
aF0.54597744489349687
aF0.54948160430810289
aF0.54697687320850552
aF0.317482119763631
aF0.48970041581036927
aF0.41316337972810196
aF0.55165611376417023
aF0.53400847985159983
aF0.48831708053645162
aF0.48857413901932878
aF0.4840356969308513
aF0.53716960416105408
aF0.53378732114360672
aF0.38564347153224382
aF0.64250594690699669
aF0.39183710498118368
aF0.65881529711305276
aF0.44247314551031219
aF0.43316917698034835
aF0.42725213154087105
aF0.65753514587874373
aF0.34815816657480475
aF0.47186157605394335
aF0.47305398848902902
aF0.46096793752109877
aF0.53474786460871038
aF0.46231864107216569
aF0.53648369592295575
aF0.44491160359049009
aF0.44269957040641789
aF0.44762516664002411
aF0.63694777301047389
aF0.5123208538851084
aF0.51310849146692095
aF0.51245061879461085
aF0.460044978187997
aF0.73529526036905635
aF0.35559736128926217
aF0.39676474156988684
aF0.41889036342448466
aF0.62277444688672667
aF0.41926069132277177
aF0.46708278405063541
aF0.46712539415021181
aF0.27589511320381294
aF0.27030553429353837
aF0.27854362023436985
aF0.8793351217068901
aF0.41459954071442551
aF0.41134397609798246
aF0.69923931477028711
aF0.41227143345964351
aF0.65055188246675133
aF0.34171422074603014
aF0.57060188286961089
aF0.36664305642484801
aF0.48907005910425916
aF0.5079156740144517
aF0.51368199830420624
aF0.48883836796675362
aF0.63194483444472305
aF0.39738939887484132
aF0.56625326222796779
aF0.34940611742885663
aF0.48614411173142513
aF0.59155808544252264
aF0.3419984333915646
aF0.54475683174619882
aF0.45905543750294758
aF0.54761005021332398
aF0.38334031665500246
aF0.58518504751162315
aF0.50690049789018765
aF0.47595015100982391
aF0.47678634309590112
aF0.53777144032538893
aF0.613197105046005
aF0.32278140757588097
aF0.6429267374091715
aF0.32626167965443004
aF0.36878524011100039
aF0.37749562605669451
aF0.75703254414391874
aF0.38522230736462015
aF0.70772034553571683
aF0.40996504247230137
aF0.41261627328895445
aF0.40100921121917454
aF0.50739445393626659
aF0.5086283219538279
aF0.50927494105049109
aF0.47380073093988567
aF0.46123751579528471
aF0.52458303547983387
aF0.49530185168224794
aF0.51647717145087269
aF0.40765709284491947
aF0.51946288363888615
aF0.44253692488024821
aF0.60674135947068519
aF0.60866429699967017
aF0.4580836110603706
aF0.45820174309638351
aF0.45797198763595159
aF0.47793277387687472
aF0.517753268296823
aF0.47568920560311828
aF0.52652786867837142
aF0.51798985313207624
aF0.49072446290064936
aF0.51779697775604083
aF0.47197701574312878
aF0.59680263508729303
aF0.46980212327157456
aF0.51678182356994695
aF0.39503053875631428
aF0.48040783662226222
aF0.51114520859548096
aF0.56454479391220647
aF0.43500351942073356
aF0.6084662127093845
aF0.39065986044923146
aF0.49679320757224038
aF0.47994817463448103
aF0.45524382485367321
aF0.46179646344191205
aF0.43648477998873497
aF0.62368110691548651
aF0.54307895470283052
aF0.6952178992210738
aF0.25998227544716485
aF0.39261499973234898
aF0.36335174362603523
aF0.57394714357741583
aF0.36345093070080481
aF0.63754498488809697
aF0.5472465933214643
aF0.54245861195429446
aF0.58539395499170233
aF0.2521383308302112
aF0.50742585188884926
aF0.51859443139993588
aF0.45700854012725961
aF0.51451143311553704
aF0.49761369527132709
aF0.57449559047943832
aF0.42264071404385661
aF0.49367018709923655
aF0.54007811308070575
aF0.40934502785594895
aF0.58491903384345223
aF0.44567028596086489
aF0.47412182892774607
aF0.39629992451912921
aF0.55642704808808618
aF0.55546719193514948
aF0.73121494642216067
aF0.41405247792102789
aF0.3494074465358889
aF0.41448725428119454
aF0.78538571616676733
aF0.2632735547082764
aF0.46671803854286564
aF0.30988801966384955
aF0.56712814711813186
aF0.45871126524333677
aF0.5350635799353749
aF0.42621192535164071
aF0.28422175515052878
aF0.52279380499223926
aF0.33506755946273337
aF0.73050281447546594
aF0.42094893534755784
aF0.41993299687456104
aF0.69052403198917456
aF0.41186749472508871
aF0.46119323924496219
aF0.55402511758270956
aF0.49099019701906282
aF0.48916826511271766
aF0.45549992845408399
aF0.45365589068954476
aF0.61017575794902701
aF0.46303530365656859
aF0.55800185527260648
aF0.43951038884543242
aF0.43951038884543242
aF0.54981375547198041
aF0.57516297150589712
aF0.47362247400819235
aF0.47354856465514455
aF0.46970316715551125
aF0.48203424277847134
aF0.48517730205868193
aF0.54496440114227629
aF0.48503585006026545
aF0.60841311130382991
aF0.4563717365811823
aF0.45374902386363342
aF0.46440300105217791
aF0.42602538153841935
aF0.44465279311206041
aF0.39684938002332376
aF0.68065911985206728
aF0.39717871910495622
aF0.40148443306761888
aF0.35282096858284573
aF0.74604066861182683
aF0.39887207355184046
aF0.61971514214339662
aF0.42333595909452509
aF0.52691638546942454
aF0.40993565640662888
aF0.68896619695554284
aF0.43589342916699947
aF0.40899297728459411
aF0.19894696445506127
aF0.76921215683859911
aF0.57308838557806085
aF0.20075473947421177
aF0.4606830438455316
aF0.53002714277130769
aF0.5028868636454058
aF0.50393170510674068
aF0.59666745474996796
aF0.40733052882309018
aF0.48951072501620274
aF0.48831243976066002
aF0.48255696277895638
aF0.51534198331576797
aF0.5557075846289049
aF0.43903359585756996
aF0.74133279306437294
aF0.48858173702952362
aF0.22713199999098377
aF0.40015575811011961
aF0.46273872031584673
aF0.52164555850190675
aF0.50674466074865299
aF0.50692074017386479
aF0.41447551540645017
aF0.55027399015701439
aF0.55014399140159409
aF0.47196416348061671
aF0.49311687154180933
aF0.49083838003810337
aF0.49314110328097893
aF0.52223106757182469
aF0.54398733094250817
aF0.44394912209258452
aF0.53170807850079593
aF0.47357521052548857
aF0.35849476609016162
aF0.62001855031737929
aF0.60587109792671678
aF0.34637943450119918
aF0.71008592347440125
aF0.58360438132047021
aF0.28709033346818641
aF0.26974626562045961
aF0.48600174892917725
aF0.5508719961245081
aF0.4841865645297691
aF0.4752953972556862
aF0.13761957100606023
aF0.66266203680387015
aF0.72168194416033027
aF0.14531018590594411
aF0.43545058400804926
aF0.43047769978671635
aF0.4364898752368272
aF0.65920279708836604
aF0.40243384141067984
aF0.7551904107750822
aF0.32480607554101859
aF0.40278463234394707
aF0.50049680364474458
aF0.45936153817583764
aF0.68156715060365602
aF0.27194879298157582
aF0.41261904054839299
aF0.4494494446522258
aF0.57684940478363822
aF0.5431256652741534
aF0.55181624082110659
aF0.44012679708991298
aF0.43977762403864296
aF0.55532232103919899
aF0.53313569475625433
aF0.58791984929926588
aF0.44457267368198028
aF0.4152971461399057
aF0.44272483032321308
aF0.36241713813176751
aF0.68844058106000638
aF0.44575566059605148
aF0.53071088804954647
aF0.45086498139667086
aF0.38773874787824503
aF0.60392498313089538
aF0.41358772013816125
aF0.50699458918874274
aF0.65913933291216453
aF0.37072499793291908
aF0.44783952436904667
aF0.63472799035723282
aF0.44559395745734764
aF0.44497883516800429
aF0.66256503493673458
aF0.2927061347487005
aF0.63263272087229516
aF0.27405571265980949
aF0.21343855321697866
aF0.61050475723963282
aF0.73690261322057771
aF0.19672941828080462
aF0.45172252235636901
aF0.48772537578725844
aF0.50314245456975226
aF0.55219416061626536
aF0.40316416265452004
aF0.42239495436799168
aF0.60113613689842271
aF0.54559738396585333
aF0.35145600880990324
aF0.74380885199751889
aF0.33759460396690855
aF0.45744611588029949
aF0.37738524337059193
aF0.6801803861713307
aF0.44803181156967559
aF0.44068414559129904
aF0.28618457924216256
aF0.50621654475398359
aF0.67260718515518514
aF0.45764917884657336
aF0.54362333823941589
aF0.43403727070419107
aF0.59510626208280881
aF0.40241005279555064
aF0.42203520641335251
aF0.43875941478136854
aF0.6417860263520061
aF0.46635518316799257
aF0.4463468864041914
aF0.51283466173631509
aF0.44828624968873371
aF0.58035722194101558
aF0.47279111528601309
aF0.58521680296890621
aF0.46620638978151918
aF0.46544758776509126
aF0.48883783316092072
aF0.48877422978536278
aF0.53197032856501414
aF0.48902443159283177
aF0.47667937172820118
aF0.48283983023299898
aF0.5834226297657511
aF0.44638605487469196
aF0.49420055703967725
aF0.5342819489021654
aF0.48567064033167812
aF0.48418244249331693
aF0.40108576590302225
aF0.48524186512946527
aF0.57640097048960637
aF0.52099180601455131
aF0.29028110750296526
aF0.61222564737371643
aF0.29333947050540499
aF0.67443946382777342
aF0.56087255022487903
aF0.42075235443421161
aF0.43184964034442996
aF0.56735819970869772
aF0.59895333198840528
aF0.55554169211344606
aF0.40764235470495563
aF0.40799025120009336
aF0.45877488169573799
aF0.48353790569824012
aF0.46164588919024679
aF0.5853202325836413
aF0.50649822248916476
aF0.50703548601650328
aF0.50249938302514663
aF0.48359997580094238
aF0.47318937804711009
aF0.47210550646937843
aF0.57228736459789753
aF0.47507407378878685
aF0.49412879966765078
aF0.50222074577835174
aF0.50137163694194176
aF0.50223254924287875
aF0.67244348238311713
aF0.4267761956533076
aF0.42847721170726671
aF0.42671901864309048
aF0.35615621578448742
aF0.41532686608481534
aF0.75652320900333703
aF0.35823034280408544
aF0.62676928174486146
aF0.43299499979666556
aF0.48193471804844373
aF0.43291399278803994
aF0.38850755662856418
aF0.65222787770959856
aF0.54768701743157888
aF0.35170954624211914
aF0.25917882592243974
aF0.29152893360783544
aF0.88556702401069032
aF0.25220678628417853
aF0.51111840759657512
aF0.54866190317723029
aF0.40677924796662346
aF0.52178418224548462
aF0.53517661888007617
aF0.18305622057699658
aF0.51626901251194823
aF0.64307286790230367
aF0.57060960097499314
aF0.39759188606200835
aF0.60873432174982323
aF0.38179562718370269
aF0.45506173975016612
aF0.54296321786266233
aF0.50685433387985379
aF0.49112976013573545
aF0.69075890835326037
aF0.40979196725317596
aF0.43242712412631545
aF0.40979196725317596
aF0.49748068945576096
aF0.46847254076817763
aF0.49701105776491167
aF0.53481440764458887
aF0.52343515767795645
aF0.3053798473081264
aF0.30589653294768887
aF0.73429292226964971
aF0.58576869911478602
aF0.5722747504211515
aF0.4058251020519002
aF0.40581107391536858
aF0.50077272758473901
aF0.29693266553940817
aF0.57493816863185598
aF0.57489457267680877
aF0.45237615317409269
aF0.58253604402625747
aF0.44751527807126762
aF0.50570510116316203
aF0.55429259853248791
aF0.48063989987679845
aF0.4803764961728299
aF0.48060734886520268
aF0.47604015079666184
aF0.47744088219587971
aF0.47489194570055326
aF0.56560906883310691
aF0.39124743637011178
aF0.75019074126510976
aF0.39469454822226829
aF0.35826737062917141
aF0.71883652147416066
aF0.40083607325374182
aF0.40241140658779834
aF0.40083607325374182
aF0.64471897159444547
aF0.42389938960527063
aF0.4248242554990399
aF0.47346711300592592
aF0.3637907818369695
aF0.2501608205713447
aF0.42626965920561183
aF0.78953784490817769
aF0.8570156158192761
aF0.16764059768597217
aF0.45734272677005294
aF0.16810263091317049
aF0.90429381536898612
aF0.27885061099246922
aF0.22429095633185706
aF0.2327844478101358
aF0.43575586060439936
aF0.4841264395169973
aF0.62024822779622824
aF0.43707042501769983
aF0.280118321445542
aF0.33492701087067484
aF0.27766452063179242
aF0.85572193927822349
aF0.49875720796354955
aF0.48370562582737131
aF0.54655328791398072
aF0.46749290745183819
aF0.39104396968470551
aF0.71523547901076912
aF0.40811299927395878
aF0.41105547455431896
aF0.42196275467710176
aF0.41804652145671761
aF0.68712054428648195
aF0.41838964755679497
aF0.5
aF0.5
aF0.5
aF0.5
aF0.46319125758936974
aF0.56461645718512476
aF0.49968045372293413
aF0.4658127943023237
aF0.58764580525476184
aF0.45882943449358032
aF0.48251788117623146
aF0.4597003936848259
aF0.3735319965224746
aF0.37616392143584587
aF0.76340857843152166
aF0.36902831078537041
aF0.34652891778715006
aF0.42262720423314548
aF0.33542150220501837
aF0.76733067919761333
aF0.53646487272324228
aF0.45417163159272916
aF0.64283527331415169
aF0.30446080334511622
aF0.35473315297965063
aF0.28441555377723465
aF0.2786550653215164
aF0.84594535137759708
aF0.49387019080737038
aF0.52253667538465931
aF0.53499823629358556
aF0.44364912337633622
aF0.54898475406333425
aF0.49556373917538599
aF0.41266638867560057
aF0.53173186088287838
aF0.1352329011427067
aF0.92096249086001847
aF0.26705274436749127
aF0.24944535394195791
aF0.45366520017757722
aF0.62828144409865272
aF0.4495118380974899
aF0.44428529185576932
aF0.28006942809067242
aF0.4636319753490849
aF0.62265241869334409
aF0.56472158837625264
aF0.48158095672722623
aF0.47835479405074438
aF0.57737124033969678
aF0.45376086648691899
aF0.5010216643189942
aF0.50322419189125689
aF0.49469181968316567
aF0.5010216643189942
aF0.51257959322911439
aF0.45441037147843033
aF0.5697821556732694
aF0.45400624442207033
aF0.55358157906023586
aF0.4794367291736773
aF0.48314526829067411
aF0.47985258962805893
aF0.60489510204018326
aF0.39580837143366637
aF0.52915422352164376
aF0.44433484711423599
aF0.50166345905324139
aF0.4994442824615965
aF0.4994442824615965
aF0.4994442824615965
aF0.37529397642594808
aF0.35405692393305571
aF0.51197605668316337
aF0.68678864525894756
aF0.44605968130904644
aF0.57416367593130102
aF0.52172781327141915
aF0.44628121494249662
aF0.29303720685384482
aF0.53473661463531608
aF0.51016639483164117
aF0.60656095979888469
aF0.3894498460274668
aF0.72045095019386918
aF0.40499664471801505
aF0.40651809745825995
aF0.46676128719494453
aF0.4389307394048198
aF0.47794279563481779
aF0.60086969542691315
aF0.45055895862091516
aF0.55197883148674443
aF0.56945963878384565
aF0.40991671616700015
aF0.38237724515472038
aF0.51622620622207338
aF0.38237724515472038
aF0.66414289786561675
aF0.48003747458274254
aF0.49048154877975525
aF0.58325941987236429
aF0.43451159067738149
aF0.46182442144845354
aF0.45881897943257804
aF0.51753521071433828
aF0.55530230824039839
aF0.47150667095504234
aF0.58421335448015499
aF0.45629938813757698
aF0.47766838295747721
aF0.47012669046951039
aF0.45764884991514138
aF0.60732246238071474
aF0.44799313808066199
aF0.27807436842381128
aF0.20139074404000601
aF0.92211344478304991
aF0.17839060735097173
aF0.31445954974808754
aF0.18868897967795714
aF0.20119350492596885
aF0.90831318062435151
aF0.3019400438244989
aF0.33663233103062912
aF0.84229982527933256
aF0.29332897568182775
aF0.3467267394262602
aF0.54381600494922766
aF0.48425370653603578
aF0.59122167469909859
aF0.60080110836903156
aF0.33108006716998151
aF0.41069438208552045
aF0.60062812274206434
aF0.4776645489002494
aF0.37406951028637708
aF0.68490555979042367
aF0.40350087281962321
aF0.26461556910143091
aF0.46686229768075654
aF0.39549288129512461
aF0.74538820519126214
aF0.48441818625567085
aF0.40740804432016603
aF0.38396253210369607
aF0.67225774832909291
aF0.3133091464558212
aF0.75834463058210921
aF0.26093474859159682
aF0.50859006772827309
aF0.45751842425635292
aF0.61408092161234462
aF0.44869243284477556
aF0.46071315792535561
aF0.9214366717702327
aF0.30199708334114389
aF0.16307923150784592
aF0.18209169618971938
aF0.5161900911960895
aF0.48533047658828299
aF0.48265381140056712
aF0.51482756004906016
aF0.64028517670558871
aF0.42986652048014878
aF0.44990422006860192
aF0.45037302297744902
aF0.45587194072753712
aF0.62064051300959733
aF0.45238015373602686
aF0.44982032387861437
aF0.56624390675775405
aF0.47542099304895535
aF0.47111974747896201
aF0.48102900220612482
aF0.52629670905052184
aF0.68152677884610702
aF0.29148903599420589
aF0.41661392877988196
aF0.76396816262866452
aF0.34904064264048229
aF0.35429834782406761
aF0.41109117845562865
aF0.62911524671600472
aF0.44528216457784575
aF0.45582104314923344
aF0.44515724961037462
aF0.70841144948649448
aF0.3607957870672176
aF0.42850373585159673
aF0.42937648588647231
aF0.59757594312781626
aF0.42814102671365284
aF0.47782706633184546
aF0.48091532323287672
aF0.51865542434325596
aF0.42499668257932888
aF0.60536177453691453
aF0.42884903232419691
aF0.48646487325877608
aF0.54659273940700348
aF0.48678926239118497
aF0.47710011353333004
aF0.29626934019032763
aF0.58400102878164939
aF0.55798065656187756
aF0.50973018681253235
aF0.5741381149436523
aF0.43738481497663328
aF0.53547718648037645
aF0.43854775265171048
aF0.53486127156518248
aF0.506773568022853
aF0.45070076049214319
aF0.50395713649562179
aF0.40333799559696265
aF0.40386580660149662
aF0.71452575691551312
aF0.40455384594669258
aF0.42222837574490185
aF0.46640931299857114
aF0.41170442921694977
aF0.6593064647242346
aF0.40316784642488424
aF0.39505374021650547
aF0.40001739302694977
aF0.72206254246151946
aF0.45795018196317311
aF0.61665457587801698
aF0.45638505598292728
aF0.44914523883044793
aF0.57498673508976628
aF0.30839262827046565
aF0.37426091161244412
aF0.65894841326030051
aF0.40420807170373196
aF0.44134958278980713
aF0.58992888026828749
aF0.54204270751133488
aF0.21489555252190271
aF0.23074308174880054
aF0.9185094663026756
aF0.23857470956441865
aF0.40635788596687966
aF0.56409086488532423
aF0.35802460109338519
aF0.62329218644017825
aF0.48589095281302985
aF0.48642753855822801
aF0.46737652730722151
aF0.55574941604006367
aF0.45075187452547383
aF0.60236499211620331
aF0.44086169546544135
aF0.48951009116866429
aF0.37601478951325851
aF0.24012205117500407
aF0.55753539787233031
aF0.70007753765290237
aF0.57937016739643521
aF0.50882950954141026
aF0.44892516967045343
aF0.4515406198640704
aF0.35657205611991322
aF0.5296699739822528
aF0.37872386750229797
aF0.66998083527826302
aF0.71348211510208481
aF0.45569014587795426
aF0.32290988619786787
aF0.42310633152301563
aF0.65802803182411485
aF0.52766381912168403
aF0.38063464584929135
aF0.37906103690934129
aF0.58855714096835943
aF0.39875098518595309
aF0.56321744468646906
aF0.42117010058790583
aF0.61220514379757274
aF0.39110544976411882
aF0.47365658726779097
aF0.49788635893186428
aF0.31448096913550438
aF0.48270351466135697
aF0.73970921677201806
aF0.34774892035446281
aF0.43053540219558867
aF0.47938242877982895
aF0.56408446976047855
aF0.51637240961197262
aF0.48173190204726651
aF0.45076804026066875
aF0.28895623678530197
aF0.69371956989287498
aF0.34801783951499293
aF0.64328239165841661
aF0.4820733053700299
aF0.48236570795523803
aF0.54764516976758171
aF0.41986696761025016
aF0.44323097065442657
aF0.57213879801385992
aF0.51030904532158183
aF0.53481209834704435
aF0.4422650714999905
aF0.50789989590047702
aF0.55643435754950277
aF0.49113012707177622
aF0.45033251715805772
aF0.49635937385227313
aF0.48600851618313756
aF0.37318691246007052
aF0.69514252629788076
aF0.3759044010093322
aF0.54918924560903404
aF0.53733243634698435
aF0.50673430868752345
aF0.39100558276803637
aF0.44827497732060068
aF0.41989279662685935
aF0.42579163045014817
aF0.66441031861922062
aF0.45897567234137293
aF0.44769564153822122
aF0.6192502167454379
aF0.45325391758615102
aF0.42301525097434578
aF0.5234695368543486
aF0.59919651331588808
aF0.43359114365804086
aF0.48653683724485947
aF0.48485295928439132
aF0.50659806350485237
aF0.52111219130823572
aF0.49521640023891211
aF0.49323557896104842
aF0.5191541217832657
aF0.49189264928114074
aF0.49540791151546004
aF0.43827911214762044
aF0.38805210472939833
aF0.64179278983022858
aF0.53705537182733298
aF0.32635661868927757
aF0.32230094683533667
aF0.70794419603394731
aF0.35972054450716906
aF0.32506997407839044
aF0.32737888382053032
aF0.81102016512572861
a.